(dp1
S'code'
p2
(dp3
S'type'
p4
S'string'
p5
sS'sortable'
p6
I2
sS'sql'
p7
S'CHAR(512)'
p8
ssS'course'
p9
(dp10
g4
g5
sg6
I4
sg7
S'CHAR(512) NOT NULL'
p11
ssS'version'
p12
(dp13
g4
S'integer'
p14
sg6
I1
sg7
S'INTEGER NOT NULL'
p15
ssS'language'
p16
(dp17
g4
g5
sg6
I5
sg7
S'CHAR(512) NOT NULL'
p18
ssS'exercise'
p19
(dp20
g4
g5
sg6
I3
sg7
S'CHAR(512) NOT NULL'
p21
ss.