(dp1
S'name'
p2
(dp3
S'length'
p4
I50
sS'unique'
p5
I01
sS'sortable'
p6
I1
sS'sql'
p7
S'CHAR(50) NOT NULL UNIQUE'
p8
sS'notnull'
p9
I01
sS'type'
p10
S'string'
p11
ssS'description'
p12
(dp13
g4
I512
sg5
I00
sg6
I2
sg7
S'CHAR(512)'
p14
sg9
I00
sg10
g11
ss.