(dp1
S'text'
p2
(dp3
S'type'
p4
S'string'
p5
sS'sortable'
p6
I2
sS'sql'
p7
S'CHAR(512)'
p8
ssS'name'
p9
(dp10
g4
g5
sg6
I1
sg7
S'CHAR(50) NOT NULL UNIQUE'
p11
ssS'language'
p12
(dp13
g4
g5
sg6
I3
sg7
S'CHAR(512) NOT NULL'
p14
ss.