(dp1
S'code'
p2
(dp3
S'type'
p4
S'string'
p5
sS'sortable'
p6
I2
sS'sql'
p7
S'CHAR(512)'
p8
ssS'language'
p9
(dp10
g4
g5
sg6
I5
sg7
S'CHAR(512) NOT NULL'
p11
ssS'course'
p12
(dp13
g4
g5
sg6
I4
sg7
S'CHAR(512) NOT NULL'
p14
ssS'version'
p15
(dp16
g4
S'integer'
p17
sg6
I1
sg7
S'INTEGER NOT NULL'
p18
ssS'user'
p19
(dp20
g4
g17
sg6
I6
sg7
S'INTEGER NOT NULL'
p21
ssS'exercise'
p22
(dp23
g4
g5
sg6
I3
sg7
S'CHAR(512) NOT NULL'
p24
ss.