(dp1
S'text'
p2
(dp3
S'length'
p4
I512
sS'unique'
p5
I00
sS'sortable'
p6
I2
sS'sql'
p7
S'CHAR(512)'
p8
sS'notnull'
p9
I00
sS'type'
p10
S'string'
p11
ssS'name'
p12
(dp13
g4
I50
sg5
I01
sg6
I1
sg7
S'CHAR(50) NOT NULL UNIQUE'
p14
sg9
I01
sg10
g11
ssS'language'
p15
(dp16
g4
I512
sg5
I00
sg6
I3
sg7
S'CHAR(512) NOT NULL'
p17
sg9
I01
sg10
g11
ss.