(dp1
S'id'
p2
(dp3
S'length'
p4
I512
sS'unique'
p5
I00
sS'sortable'
p6
I1
sS'sql'
p7
S'INTEGER PRIMARY KEY AUTOINCREMENT'
p8
sS'notnull'
p9
I00
sS'type'
p10
S'id'
p11
ssS'name'
p12
(dp13
g4
I50
sg5
I01
sg6
I2
sg7
S'CHAR(50) UNIQUE'
p14
sg9
I00
sg10
S'string'
p15
ssS'teacher'
p16
(dp17
g4
I512
sg5
I00
sg6
I3
sg7
S'INTEGER REFERENCES auth_user (id) ON DELETE CASCADE'
p18
sg9
I00
sg10
S'reference auth_user'
p19
ss.