(dp1
S'output'
p2
S"<type 'exceptions.SyntaxError'> invalid syntax (db.py, line 93)"
p3
sS'layer'
p4
S'/Applications/web2py/applications/PythonCheck/models/db.py'
p5
sS'code'
p6
S"# -*- coding: utf-8 -*-\n\n#########################################################################\n## This scaffolding model makes your app work on Google App Engine too\n## File is released under public domain and you can use without limitations\n#########################################################################\n\n## if SSL/HTTPS is properly configured and you want all HTTP requests to\n## be redirected to HTTPS, uncomment the line below:\n# request.requires_https()\n\nif not request.env.web2py_runtime_gae:\n    ## if NOT running on Google App Engine use SQLite or other DB\n    db = DAL('sqlite://storage.sqlite')\nelse:\n    ## connect to Google BigTable (optional 'google:datastore://namespace')\n    db = DAL('google:datastore')\n    ## store sessions and tickets there\n    session.connect(request, response, db=db)\n    ## or store session in Memcache, Redis, etc.\n    ## from gluon.contrib.memdb import MEMDB\n    ## from google.appengine.api.memcache import Client\n    ## session.connect(request, response, db = MEMDB(Client()))\n\n## by default give a view/generic.extension to all actions from localhost\n## none otherwise. a pattern can be 'controller/function.extension'\nresponse.generic_patterns = ['*'] if request.is_local else []\n## (optional) optimize handling of static files\n# response.optimize_css = 'concat,minify,inline'\n# response.optimize_js = 'concat,minify,inline'\n\n#########################################################################\n## Here is sample code if you need for\n## - email capabilities\n## - authentication (registration, login, logout, ... )\n## - authorization (role based authorization)\n## - services (xml, csv, json, xmlrpc, jsonrpc, amf, rss)\n## - old style crud actions\n## (more options discussed in gluon/tools.py)\n#########################################################################\n\nfrom gluon.tools import Auth, Crud, Service, PluginManager, prettydate\nauth = Auth(db)\ncrud, service, plugins = Crud(db), Service(), PluginManager()\n\n## create all tables needed by auth if not custom tables\nauth.define_tables(username=False, signature=False)\n\n## configure email\nmail = auth.settings.mailer\nmail.settings.server = 'logging' or 'smtp.gmail.com:587'\nmail.settings.sender = 'you@gmail.com'\nmail.settings.login = 'username:password'\n\n## configure auth policy\nauth.settings.registration_requires_verification = False\nauth.settings.registration_requires_approval = False\nauth.settings.reset_password_requires_verification = True\nauth.settings.create_user_groups = False\nauth.settings.register_onaccept = (lambda f: auth.add_membership(auth.id_group('student'), auth.user_id))\n\n## if you need to use OpenID, Facebook, MySpace, Twitter, Linkedin, etc.\n## register with janrain.com, write your domain:api_key in private/janrain.key\nfrom gluon.contrib.login_methods.rpx_account import use_janrain\nuse_janrain(auth, filename='private/janrain.key')\n\n#########################################################################\n## Define your tables below (or better in another model file) for example\n##\n## >>> db.define_table('mytable',Field('myfield','string'))\n##\n## Fields can be 'string','text','password','integer','double','boolean'\n##       'date','time','datetime','blob','upload', 'reference TABLENAME'\n## There is an implicit 'id integer autoincrement' field\n## Consult manual for more options, validators, etc.\n##\n## More API examples for controllers:\n##\n## >>> db.mytable.insert(myfield='value')\n## >>> rows=db(db.mytable.myfield=='value').select(db.mytable.ALL)\n## >>> for row in rows: print row.id, row.myfield\n#########################################################################\n\n## after defining tables, uncomment below to enable auditing\n# auth.enable_record_versioning(db)\n\ndb.define_table('course', \n                Field('name', \n                      'string', \n                       length=50, \n                       required=True, \n                       unique=True\n                       label=T('Name', lazy=False)),\n                Field('teacher',\n                      'reference user',\n                      required=True,\n                      label=T('Teacher', lazy=False)))\n"
p7
sS'snapshot'
p8
(dp9
S'exception'
p10
(dp11
S'__getslice__'
p12
S"<method-wrapper '__getslice__' of exceptions.SyntaxError object>"
p13
sS'text'
p14
S'"                       label=T(\'Name\', lazy=False)),\\n"'
p15
sS'__str__'
p16
S"<method-wrapper '__str__' of exceptions.SyntaxError object>"
p17
sS'__reduce__'
p18
S'<built-in method __reduce__ of exceptions.SyntaxError object>'
p19
sS'__dict__'
p20
S'{}'
p21
sS'__sizeof__'
p22
S'<built-in method __sizeof__ of exceptions.SyntaxError object>'
p23
sS'__init__'
p24
S"<method-wrapper '__init__' of exceptions.SyntaxError object>"
p25
sS'__setattr__'
p26
S"<method-wrapper '__setattr__' of exceptions.SyntaxError object>"
p27
sS'__reduce_ex__'
p28
S'<built-in method __reduce_ex__ of exceptions.SyntaxError object>'
p29
sS'__new__'
p30
S'<built-in method __new__ of type object>'
p31
sS'__format__'
p32
S'<built-in method __format__ of exceptions.SyntaxError object>'
p33
sS'__class__'
p34
S"<type 'exceptions.SyntaxError'>"
p35
sS'filename'
p36
S"'/Applications/web2py/applications/PythonCheck/models/db.py'"
p37
sS'lineno'
p38
S'93'
p39
sS'msg'
p40
S"'invalid syntax'"
p41
sS'__doc__'
p42
S"'Invalid syntax.'"
p43
sS'__getitem__'
p44
S"<method-wrapper '__getitem__' of exceptions.SyntaxError object>"
p45
sS'__setstate__'
p46
S'<built-in method __setstate__ of exceptions.SyntaxError object>'
p47
sS'__getattribute__'
p48
S"<method-wrapper '__getattribute__' of exceptions.SyntaxError object>"
p49
sS'print_file_and_line'
p50
S'None'
p51
sS'args'
p52
S'(\'invalid syntax\', (\'/Applications/web2py/applications/PythonCheck/models/db.py\', 93, 28, "                       label=T(\'Name\', lazy=False)),\\n"))'
p53
sS'__subclasshook__'
p54
S'<built-in method __subclasshook__ of type object>'
p55
sS'offset'
p56
S'28'
p57
sS'__unicode__'
p58
S'<built-in method __unicode__ of exceptions.SyntaxError object>'
p59
sS'__delattr__'
p60
S"<method-wrapper '__delattr__' of exceptions.SyntaxError object>"
p61
sS'__repr__'
p62
S"<method-wrapper '__repr__' of exceptions.SyntaxError object>"
p63
sS'__hash__'
p64
S"<method-wrapper '__hash__' of exceptions.SyntaxError object>"
p65
ssS'evalue'
p66
S'invalid syntax (db.py, line 93)'
p67
sS'request'
p68
ccopy_reg
_reconstructor
p69
(cgluon.html
BEAUTIFY
p70
c__builtin__
object
p71
NtRp72
(dp73
S'attributes'
p74
(dp75
sS'components'
p76
(lp77
g69
(cgluon.html
TABLE
p78
g71
NtRp79
(dp80
g74
(dp81
S'level'
p82
I5
ssS'parent'
p83
Nsg76
(lp84
g69
(cgluon.html
TR
p85
g71
NtRp86
(dp87
g74
(dp88
sg83
g79
sg76
(lp89
g69
(cgluon.html
TD
p90
g71
NtRp91
(dp92
g74
(dp93
S'_style'
p94
S'font-weight:bold;vertical-align:top'
p95
ssg83
g86
sg76
(lp96
S'ajax'
p97
asbag69
(g90
g71
NtRp98
(dp99
g74
(dp100
S'_valign'
p101
S'top'
p102
ssg83
g86
sg76
(lp103
S':'
asbag69
(g90
g71
NtRp104
(dp105
g74
(dp106
sg83
g86
sg76
(lp107
g69
(g70
g71
NtRp108
(dp109
g74
(dp110
g82
I5
ssg83
g104
sg76
(lp111
S'False'
p112
asbasbasbag69
(g85
g71
NtRp113
(dp114
g74
(dp115
sg83
g79
sg76
(lp116
g69
(g90
g71
NtRp117
(dp118
g74
(dp119
g94
g95
ssg83
g113
sg76
(lp120
S'application'
p121
asbag69
(g90
g71
NtRp122
(dp123
g74
(dp124
g101
g102
ssg83
g113
sg76
(lp125
S':'
asbag69
(g90
g71
NtRp126
(dp127
g74
(dp128
sg83
g113
sg76
(lp129
g69
(g70
g71
NtRp130
(dp131
g74
(dp132
g82
I5
ssg83
g126
sg76
(lp133
S'PythonCheck'
p134
asbasbasbag69
(g85
g71
NtRp135
(dp136
g74
(dp137
sg83
g79
sg76
(lp138
g69
(g90
g71
NtRp139
(dp140
g74
(dp141
g94
g95
ssg83
g135
sg76
(lp142
g52
asbag69
(g90
g71
NtRp143
(dp144
g74
(dp145
g101
g102
ssg83
g135
sg76
(lp146
S':'
asbag69
(g90
g71
NtRp147
(dp148
g74
(dp149
sg83
g135
sg76
(lp150
g69
(g70
g71
NtRp151
(dp152
g74
(dp153
g82
I5
ssg83
g147
sg76
(lp154
g69
(g78
g71
NtRp155
(dp156
g74
(dp157
g82
I4
ssg83
Nsg76
(lp158
g69
(g85
g71
NtRp159
(dp160
g74
(dp161
sg83
g155
sg76
(lp162
g69
(g90
g71
NtRp163
(dp164
g74
(dp165
sg83
g159
sg76
(lp166
g69
(g70
g71
NtRp167
(dp168
g74
(dp169
g82
I4
ssg83
g163
sg76
(lp170
S'db'
p171
asbasbasbasbasbasbasbag69
(g85
g71
NtRp172
(dp173
g74
(dp174
sg83
g79
sg76
(lp175
g69
(g90
g71
NtRp176
(dp177
g74
(dp178
g94
g95
ssg83
g172
sg76
(lp179
S'body'
p180
asbag69
(g90
g71
NtRp181
(dp182
g74
(dp183
g101
g102
ssg83
g172
sg76
(lp184
S':'
asbag69
(g90
g71
NtRp185
(dp186
g74
(dp187
sg83
g172
sg76
(lp188
g69
(g70
g71
NtRp189
(dp190
g74
(dp191
g82
I5
ssg83
g185
sg76
(lp192
S'<cStringIO.StringO object at 0x10a4686c0>'
p193
asbasbasbag69
(g85
g71
NtRp194
(dp195
g74
(dp196
sg83
g79
sg76
(lp197
g69
(g90
g71
NtRp198
(dp199
g74
(dp200
g94
g95
ssg83
g194
sg76
(lp201
S'cid'
p202
asbag69
(g90
g71
NtRp203
(dp204
g74
(dp205
g101
g102
ssg83
g194
sg76
(lp206
S':'
asbag69
(g90
g71
NtRp207
(dp208
g74
(dp209
sg83
g194
sg76
(lp210
g69
(g70
g71
NtRp211
(dp212
g74
(dp213
g82
I5
ssg83
g207
sg76
(lp214
S'None'
p215
asbasbasbag69
(g85
g71
NtRp216
(dp217
g74
(dp218
sg83
g79
sg76
(lp219
g69
(g90
g71
NtRp220
(dp221
g74
(dp222
g94
g95
ssg83
g216
sg76
(lp223
S'client'
p224
asbag69
(g90
g71
NtRp225
(dp226
g74
(dp227
g101
g102
ssg83
g216
sg76
(lp228
S':'
asbag69
(g90
g71
NtRp229
(dp230
g74
(dp231
sg83
g216
sg76
(lp232
g69
(g70
g71
NtRp233
(dp234
g74
(dp235
g82
I5
ssg83
g229
sg76
(lp236
S'127.0.0.1'
p237
asbasbasbag69
(g85
g71
NtRp238
(dp239
g74
(dp240
sg83
g79
sg76
(lp241
g69
(g90
g71
NtRp242
(dp243
g74
(dp244
g94
g95
ssg83
g238
sg76
(lp245
S'controller'
p246
asbag69
(g90
g71
NtRp247
(dp248
g74
(dp249
g101
g102
ssg83
g238
sg76
(lp250
S':'
asbag69
(g90
g71
NtRp251
(dp252
g74
(dp253
sg83
g238
sg76
(lp254
g69
(g70
g71
NtRp255
(dp256
g74
(dp257
g82
I5
ssg83
g251
sg76
(lp258
S'appadmin'
p259
asbasbasbag69
(g85
g71
NtRp260
(dp261
g74
(dp262
sg83
g79
sg76
(lp263
g69
(g90
g71
NtRp264
(dp265
g74
(dp266
g94
g95
ssg83
g260
sg76
(lp267
S'cookies'
p268
asbag69
(g90
g71
NtRp269
(dp270
g74
(dp271
g101
g102
ssg83
g260
sg76
(lp272
S':'
asbag69
(g90
g71
NtRp273
(dp274
g74
(dp275
sg83
g260
sg76
(lp276
g69
(g70
g71
NtRp277
(dp278
g74
(dp279
g82
I5
ssg83
g273
sg76
(lp280
g69
(g78
g71
NtRp281
(dp282
g74
(dp283
g82
I4
ssg83
Nsg76
(lp284
g69
(g85
g71
NtRp285
(dp286
g74
(dp287
sg83
g281
sg76
(lp288
g69
(g90
g71
NtRp289
(dp290
g74
(dp291
g94
g95
ssg83
g285
sg76
(lp292
S'82194aeeb794e18b185dda10e0817672'
p293
asbag69
(g90
g71
NtRp294
(dp295
g74
(dp296
g101
g102
ssg83
g285
sg76
(lp297
S':'
asbag69
(g90
g71
NtRp298
(dp299
g74
(dp300
sg83
g285
sg76
(lp301
g69
(g70
g71
NtRp302
(dp303
g74
(dp304
g82
I4
ssg83
g298
sg76
(lp305
S'404e5a2c3debac3d9432bd6d60d7a0f0'
p306
ag69
(g78
g71
NtRp307
(dp308
g74
(dp309
g82
I3
ssg83
Nsg76
(lp310
g69
(g85
g71
NtRp311
(dp312
g74
(dp313
sg83
g307
sg76
(lp314
g69
(g90
g71
NtRp315
(dp316
g74
(dp317
g94
g95
ssg83
g311
sg76
(lp318
S'comment'
p319
asbag69
(g90
g71
NtRp320
(dp321
g74
(dp322
g101
g102
ssg83
g311
sg76
(lp323
S':'
asbag69
(g90
g71
NtRp324
(dp325
g74
(dp326
sg83
g311
sg76
(lp327
g69
(g70
g71
NtRp328
(dp329
g74
(dp330
g82
I3
ssg83
g324
sg76
(lp331
S''
asbasbasbag69
(g85
g71
NtRp332
(dp333
g74
(dp334
sg83
g307
sg76
(lp335
g69
(g90
g71
NtRp336
(dp337
g74
(dp338
g94
g95
ssg83
g332
sg76
(lp339
S'domain'
p340
asbag69
(g90
g71
NtRp341
(dp342
g74
(dp343
g101
g102
ssg83
g332
sg76
(lp344
S':'
asbag69
(g90
g71
NtRp345
(dp346
g74
(dp347
sg83
g332
sg76
(lp348
g69
(g70
g71
NtRp349
(dp350
g74
(dp351
g82
I3
ssg83
g345
sg76
(lp352
S''
asbasbasbag69
(g85
g71
NtRp353
(dp354
g74
(dp355
sg83
g307
sg76
(lp356
g69
(g90
g71
NtRp357
(dp358
g74
(dp359
g94
g95
ssg83
g353
sg76
(lp360
S'expires'
p361
asbag69
(g90
g71
NtRp362
(dp363
g74
(dp364
g101
g102
ssg83
g353
sg76
(lp365
S':'
asbag69
(g90
g71
NtRp366
(dp367
g74
(dp368
sg83
g353
sg76
(lp369
g69
(g70
g71
NtRp370
(dp371
g74
(dp372
g82
I3
ssg83
g366
sg76
(lp373
S''
asbasbasbag69
(g85
g71
NtRp374
(dp375
g74
(dp376
sg83
g307
sg76
(lp377
g69
(g90
g71
NtRp378
(dp379
g74
(dp380
g94
g95
ssg83
g374
sg76
(lp381
S'httponly'
p382
asbag69
(g90
g71
NtRp383
(dp384
g74
(dp385
g101
g102
ssg83
g374
sg76
(lp386
S':'
asbag69
(g90
g71
NtRp387
(dp388
g74
(dp389
sg83
g374
sg76
(lp390
g69
(g70
g71
NtRp391
(dp392
g74
(dp393
g82
I3
ssg83
g387
sg76
(lp394
S''
asbasbasbag69
(g85
g71
NtRp395
(dp396
g74
(dp397
sg83
g307
sg76
(lp398
g69
(g90
g71
NtRp399
(dp400
g74
(dp401
g94
g95
ssg83
g395
sg76
(lp402
S'max-age'
p403
asbag69
(g90
g71
NtRp404
(dp405
g74
(dp406
g101
g102
ssg83
g395
sg76
(lp407
S':'
asbag69
(g90
g71
NtRp408
(dp409
g74
(dp410
sg83
g395
sg76
(lp411
g69
(g70
g71
NtRp412
(dp413
g74
(dp414
g82
I3
ssg83
g408
sg76
(lp415
S''
asbasbasbag69
(g85
g71
NtRp416
(dp417
g74
(dp418
sg83
g307
sg76
(lp419
g69
(g90
g71
NtRp420
(dp421
g74
(dp422
g94
g95
ssg83
g416
sg76
(lp423
S'path'
p424
asbag69
(g90
g71
NtRp425
(dp426
g74
(dp427
g101
g102
ssg83
g416
sg76
(lp428
S':'
asbag69
(g90
g71
NtRp429
(dp430
g74
(dp431
sg83
g416
sg76
(lp432
g69
(g70
g71
NtRp433
(dp434
g74
(dp435
g82
I3
ssg83
g429
sg76
(lp436
S''
asbasbasbag69
(g85
g71
NtRp437
(dp438
g74
(dp439
sg83
g307
sg76
(lp440
g69
(g90
g71
NtRp441
(dp442
g74
(dp443
g94
g95
ssg83
g437
sg76
(lp444
S'secure'
p445
asbag69
(g90
g71
NtRp446
(dp447
g74
(dp448
g101
g102
ssg83
g437
sg76
(lp449
S':'
asbag69
(g90
g71
NtRp450
(dp451
g74
(dp452
sg83
g437
sg76
(lp453
g69
(g70
g71
NtRp454
(dp455
g74
(dp456
g82
I3
ssg83
g450
sg76
(lp457
S''
asbasbasbag69
(g85
g71
NtRp458
(dp459
g74
(dp460
sg83
g307
sg76
(lp461
g69
(g90
g71
NtRp462
(dp463
g74
(dp464
g94
g95
ssg83
g458
sg76
(lp465
S'version'
p466
asbag69
(g90
g71
NtRp467
(dp468
g74
(dp469
g101
g102
ssg83
g458
sg76
(lp470
S':'
asbag69
(g90
g71
NtRp471
(dp472
g74
(dp473
sg83
g458
sg76
(lp474
g69
(g70
g71
NtRp475
(dp476
g74
(dp477
g82
I3
ssg83
g471
sg76
(lp478
S''
asbasbasbasbasbasbasbag69
(g85
g71
NtRp479
(dp480
g74
(dp481
sg83
g281
sg76
(lp482
g69
(g90
g71
NtRp483
(dp484
g74
(dp485
g94
g95
ssg83
g479
sg76
(lp486
S'91c470c014285e4b6f93215ecdef7f1b'
p487
asbag69
(g90
g71
NtRp488
(dp489
g74
(dp490
g101
g102
ssg83
g479
sg76
(lp491
S':'
asbag69
(g90
g71
NtRp492
(dp493
g74
(dp494
sg83
g479
sg76
(lp495
g69
(g70
g71
NtRp496
(dp497
g74
(dp498
g82
I4
ssg83
g492
sg76
(lp499
S'68a8qmlb4o89cn0pb7mrnmok67'
p500
ag69
(g78
g71
NtRp501
(dp502
g74
(dp503
g82
I3
ssg83
Nsg76
(lp504
g69
(g85
g71
NtRp505
(dp506
g74
(dp507
sg83
g501
sg76
(lp508
g69
(g90
g71
NtRp509
(dp510
g74
(dp511
g94
g95
ssg83
g505
sg76
(lp512
g319
asbag69
(g90
g71
NtRp513
(dp514
g74
(dp515
g101
g102
ssg83
g505
sg76
(lp516
S':'
asbag69
(g90
g71
NtRp517
(dp518
g74
(dp519
sg83
g505
sg76
(lp520
g69
(g70
g71
NtRp521
(dp522
g74
(dp523
g82
I3
ssg83
g517
sg76
(lp524
S''
asbasbasbag69
(g85
g71
NtRp525
(dp526
g74
(dp527
sg83
g501
sg76
(lp528
g69
(g90
g71
NtRp529
(dp530
g74
(dp531
g94
g95
ssg83
g525
sg76
(lp532
g340
asbag69
(g90
g71
NtRp533
(dp534
g74
(dp535
g101
g102
ssg83
g525
sg76
(lp536
S':'
asbag69
(g90
g71
NtRp537
(dp538
g74
(dp539
sg83
g525
sg76
(lp540
g69
(g70
g71
NtRp541
(dp542
g74
(dp543
g82
I3
ssg83
g537
sg76
(lp544
S''
asbasbasbag69
(g85
g71
NtRp545
(dp546
g74
(dp547
sg83
g501
sg76
(lp548
g69
(g90
g71
NtRp549
(dp550
g74
(dp551
g94
g95
ssg83
g545
sg76
(lp552
g361
asbag69
(g90
g71
NtRp553
(dp554
g74
(dp555
g101
g102
ssg83
g545
sg76
(lp556
S':'
asbag69
(g90
g71
NtRp557
(dp558
g74
(dp559
sg83
g545
sg76
(lp560
g69
(g70
g71
NtRp561
(dp562
g74
(dp563
g82
I3
ssg83
g557
sg76
(lp564
S''
asbasbasbag69
(g85
g71
NtRp565
(dp566
g74
(dp567
sg83
g501
sg76
(lp568
g69
(g90
g71
NtRp569
(dp570
g74
(dp571
g94
g95
ssg83
g565
sg76
(lp572
g382
asbag69
(g90
g71
NtRp573
(dp574
g74
(dp575
g101
g102
ssg83
g565
sg76
(lp576
S':'
asbag69
(g90
g71
NtRp577
(dp578
g74
(dp579
sg83
g565
sg76
(lp580
g69
(g70
g71
NtRp581
(dp582
g74
(dp583
g82
I3
ssg83
g577
sg76
(lp584
S''
asbasbasbag69
(g85
g71
NtRp585
(dp586
g74
(dp587
sg83
g501
sg76
(lp588
g69
(g90
g71
NtRp589
(dp590
g74
(dp591
g94
g95
ssg83
g585
sg76
(lp592
g403
asbag69
(g90
g71
NtRp593
(dp594
g74
(dp595
g101
g102
ssg83
g585
sg76
(lp596
S':'
asbag69
(g90
g71
NtRp597
(dp598
g74
(dp599
sg83
g585
sg76
(lp600
g69
(g70
g71
NtRp601
(dp602
g74
(dp603
g82
I3
ssg83
g597
sg76
(lp604
S''
asbasbasbag69
(g85
g71
NtRp605
(dp606
g74
(dp607
sg83
g501
sg76
(lp608
g69
(g90
g71
NtRp609
(dp610
g74
(dp611
g94
g95
ssg83
g605
sg76
(lp612
g424
asbag69
(g90
g71
NtRp613
(dp614
g74
(dp615
g101
g102
ssg83
g605
sg76
(lp616
S':'
asbag69
(g90
g71
NtRp617
(dp618
g74
(dp619
sg83
g605
sg76
(lp620
g69
(g70
g71
NtRp621
(dp622
g74
(dp623
g82
I3
ssg83
g617
sg76
(lp624
S''
asbasbasbag69
(g85
g71
NtRp625
(dp626
g74
(dp627
sg83
g501
sg76
(lp628
g69
(g90
g71
NtRp629
(dp630
g74
(dp631
g94
g95
ssg83
g625
sg76
(lp632
g445
asbag69
(g90
g71
NtRp633
(dp634
g74
(dp635
g101
g102
ssg83
g625
sg76
(lp636
S':'
asbag69
(g90
g71
NtRp637
(dp638
g74
(dp639
sg83
g625
sg76
(lp640
g69
(g70
g71
NtRp641
(dp642
g74
(dp643
g82
I3
ssg83
g637
sg76
(lp644
S''
asbasbasbag69
(g85
g71
NtRp645
(dp646
g74
(dp647
sg83
g501
sg76
(lp648
g69
(g90
g71
NtRp649
(dp650
g74
(dp651
g94
g95
ssg83
g645
sg76
(lp652
g466
asbag69
(g90
g71
NtRp653
(dp654
g74
(dp655
g101
g102
ssg83
g645
sg76
(lp656
S':'
asbag69
(g90
g71
NtRp657
(dp658
g74
(dp659
sg83
g645
sg76
(lp660
g69
(g70
g71
NtRp661
(dp662
g74
(dp663
g82
I3
ssg83
g657
sg76
(lp664
S''
asbasbasbasbasbasbasbag69
(g85
g71
NtRp665
(dp666
g74
(dp667
sg83
g281
sg76
(lp668
g69
(g90
g71
NtRp669
(dp670
g74
(dp671
g94
g95
ssg83
g665
sg76
(lp672
S'9d4bb4a09f511681369671a08beff228'
p673
asbag69
(g90
g71
NtRp674
(dp675
g74
(dp676
g101
g102
ssg83
g665
sg76
(lp677
S':'
asbag69
(g90
g71
NtRp678
(dp679
g74
(dp680
sg83
g665
sg76
(lp681
g69
(g70
g71
NtRp682
(dp683
g74
(dp684
g82
I4
ssg83
g678
sg76
(lp685
S'lfmfp23h9icoft9v0gmjkn4p21'
p686
ag69
(g78
g71
NtRp687
(dp688
g74
(dp689
g82
I3
ssg83
Nsg76
(lp690
g69
(g85
g71
NtRp691
(dp692
g74
(dp693
sg83
g687
sg76
(lp694
g69
(g90
g71
NtRp695
(dp696
g74
(dp697
g94
g95
ssg83
g691
sg76
(lp698
g319
asbag69
(g90
g71
NtRp699
(dp700
g74
(dp701
g101
g102
ssg83
g691
sg76
(lp702
S':'
asbag69
(g90
g71
NtRp703
(dp704
g74
(dp705
sg83
g691
sg76
(lp706
g69
(g70
g71
NtRp707
(dp708
g74
(dp709
g82
I3
ssg83
g703
sg76
(lp710
S''
asbasbasbag69
(g85
g71
NtRp711
(dp712
g74
(dp713
sg83
g687
sg76
(lp714
g69
(g90
g71
NtRp715
(dp716
g74
(dp717
g94
g95
ssg83
g711
sg76
(lp718
g340
asbag69
(g90
g71
NtRp719
(dp720
g74
(dp721
g101
g102
ssg83
g711
sg76
(lp722
S':'
asbag69
(g90
g71
NtRp723
(dp724
g74
(dp725
sg83
g711
sg76
(lp726
g69
(g70
g71
NtRp727
(dp728
g74
(dp729
g82
I3
ssg83
g723
sg76
(lp730
S''
asbasbasbag69
(g85
g71
NtRp731
(dp732
g74
(dp733
sg83
g687
sg76
(lp734
g69
(g90
g71
NtRp735
(dp736
g74
(dp737
g94
g95
ssg83
g731
sg76
(lp738
g361
asbag69
(g90
g71
NtRp739
(dp740
g74
(dp741
g101
g102
ssg83
g731
sg76
(lp742
S':'
asbag69
(g90
g71
NtRp743
(dp744
g74
(dp745
sg83
g731
sg76
(lp746
g69
(g70
g71
NtRp747
(dp748
g74
(dp749
g82
I3
ssg83
g743
sg76
(lp750
S''
asbasbasbag69
(g85
g71
NtRp751
(dp752
g74
(dp753
sg83
g687
sg76
(lp754
g69
(g90
g71
NtRp755
(dp756
g74
(dp757
g94
g95
ssg83
g751
sg76
(lp758
g382
asbag69
(g90
g71
NtRp759
(dp760
g74
(dp761
g101
g102
ssg83
g751
sg76
(lp762
S':'
asbag69
(g90
g71
NtRp763
(dp764
g74
(dp765
sg83
g751
sg76
(lp766
g69
(g70
g71
NtRp767
(dp768
g74
(dp769
g82
I3
ssg83
g763
sg76
(lp770
S''
asbasbasbag69
(g85
g71
NtRp771
(dp772
g74
(dp773
sg83
g687
sg76
(lp774
g69
(g90
g71
NtRp775
(dp776
g74
(dp777
g94
g95
ssg83
g771
sg76
(lp778
g403
asbag69
(g90
g71
NtRp779
(dp780
g74
(dp781
g101
g102
ssg83
g771
sg76
(lp782
S':'
asbag69
(g90
g71
NtRp783
(dp784
g74
(dp785
sg83
g771
sg76
(lp786
g69
(g70
g71
NtRp787
(dp788
g74
(dp789
g82
I3
ssg83
g783
sg76
(lp790
S''
asbasbasbag69
(g85
g71
NtRp791
(dp792
g74
(dp793
sg83
g687
sg76
(lp794
g69
(g90
g71
NtRp795
(dp796
g74
(dp797
g94
g95
ssg83
g791
sg76
(lp798
g424
asbag69
(g90
g71
NtRp799
(dp800
g74
(dp801
g101
g102
ssg83
g791
sg76
(lp802
S':'
asbag69
(g90
g71
NtRp803
(dp804
g74
(dp805
sg83
g791
sg76
(lp806
g69
(g70
g71
NtRp807
(dp808
g74
(dp809
g82
I3
ssg83
g803
sg76
(lp810
S''
asbasbasbag69
(g85
g71
NtRp811
(dp812
g74
(dp813
sg83
g687
sg76
(lp814
g69
(g90
g71
NtRp815
(dp816
g74
(dp817
g94
g95
ssg83
g811
sg76
(lp818
g445
asbag69
(g90
g71
NtRp819
(dp820
g74
(dp821
g101
g102
ssg83
g811
sg76
(lp822
S':'
asbag69
(g90
g71
NtRp823
(dp824
g74
(dp825
sg83
g811
sg76
(lp826
g69
(g70
g71
NtRp827
(dp828
g74
(dp829
g82
I3
ssg83
g823
sg76
(lp830
S''
asbasbasbag69
(g85
g71
NtRp831
(dp832
g74
(dp833
sg83
g687
sg76
(lp834
g69
(g90
g71
NtRp835
(dp836
g74
(dp837
g94
g95
ssg83
g831
sg76
(lp838
g466
asbag69
(g90
g71
NtRp839
(dp840
g74
(dp841
g101
g102
ssg83
g831
sg76
(lp842
S':'
asbag69
(g90
g71
NtRp843
(dp844
g74
(dp845
sg83
g831
sg76
(lp846
g69
(g70
g71
NtRp847
(dp848
g74
(dp849
g82
I3
ssg83
g843
sg76
(lp850
S''
asbasbasbasbasbasbasbag69
(g85
g71
NtRp851
(dp852
g74
(dp853
sg83
g281
sg76
(lp854
g69
(g90
g71
NtRp855
(dp856
g74
(dp857
g94
g95
ssg83
g851
sg76
(lp858
S'PHPSESSID'
p859
asbag69
(g90
g71
NtRp860
(dp861
g74
(dp862
g101
g102
ssg83
g851
sg76
(lp863
S':'
asbag69
(g90
g71
NtRp864
(dp865
g74
(dp866
sg83
g851
sg76
(lp867
g69
(g70
g71
NtRp868
(dp869
g74
(dp870
g82
I4
ssg83
g864
sg76
(lp871
S'amfcki4mgr4gk9c5l6n3pftto7'
p872
ag69
(g78
g71
NtRp873
(dp874
g74
(dp875
g82
I3
ssg83
Nsg76
(lp876
g69
(g85
g71
NtRp877
(dp878
g74
(dp879
sg83
g873
sg76
(lp880
g69
(g90
g71
NtRp881
(dp882
g74
(dp883
g94
g95
ssg83
g877
sg76
(lp884
g319
asbag69
(g90
g71
NtRp885
(dp886
g74
(dp887
g101
g102
ssg83
g877
sg76
(lp888
S':'
asbag69
(g90
g71
NtRp889
(dp890
g74
(dp891
sg83
g877
sg76
(lp892
g69
(g70
g71
NtRp893
(dp894
g74
(dp895
g82
I3
ssg83
g889
sg76
(lp896
S''
asbasbasbag69
(g85
g71
NtRp897
(dp898
g74
(dp899
sg83
g873
sg76
(lp900
g69
(g90
g71
NtRp901
(dp902
g74
(dp903
g94
g95
ssg83
g897
sg76
(lp904
g340
asbag69
(g90
g71
NtRp905
(dp906
g74
(dp907
g101
g102
ssg83
g897
sg76
(lp908
S':'
asbag69
(g90
g71
NtRp909
(dp910
g74
(dp911
sg83
g897
sg76
(lp912
g69
(g70
g71
NtRp913
(dp914
g74
(dp915
g82
I3
ssg83
g909
sg76
(lp916
S''
asbasbasbag69
(g85
g71
NtRp917
(dp918
g74
(dp919
sg83
g873
sg76
(lp920
g69
(g90
g71
NtRp921
(dp922
g74
(dp923
g94
g95
ssg83
g917
sg76
(lp924
g361
asbag69
(g90
g71
NtRp925
(dp926
g74
(dp927
g101
g102
ssg83
g917
sg76
(lp928
S':'
asbag69
(g90
g71
NtRp929
(dp930
g74
(dp931
sg83
g917
sg76
(lp932
g69
(g70
g71
NtRp933
(dp934
g74
(dp935
g82
I3
ssg83
g929
sg76
(lp936
S''
asbasbasbag69
(g85
g71
NtRp937
(dp938
g74
(dp939
sg83
g873
sg76
(lp940
g69
(g90
g71
NtRp941
(dp942
g74
(dp943
g94
g95
ssg83
g937
sg76
(lp944
g382
asbag69
(g90
g71
NtRp945
(dp946
g74
(dp947
g101
g102
ssg83
g937
sg76
(lp948
S':'
asbag69
(g90
g71
NtRp949
(dp950
g74
(dp951
sg83
g937
sg76
(lp952
g69
(g70
g71
NtRp953
(dp954
g74
(dp955
g82
I3
ssg83
g949
sg76
(lp956
S''
asbasbasbag69
(g85
g71
NtRp957
(dp958
g74
(dp959
sg83
g873
sg76
(lp960
g69
(g90
g71
NtRp961
(dp962
g74
(dp963
g94
g95
ssg83
g957
sg76
(lp964
g403
asbag69
(g90
g71
NtRp965
(dp966
g74
(dp967
g101
g102
ssg83
g957
sg76
(lp968
S':'
asbag69
(g90
g71
NtRp969
(dp970
g74
(dp971
sg83
g957
sg76
(lp972
g69
(g70
g71
NtRp973
(dp974
g74
(dp975
g82
I3
ssg83
g969
sg76
(lp976
S''
asbasbasbag69
(g85
g71
NtRp977
(dp978
g74
(dp979
sg83
g873
sg76
(lp980
g69
(g90
g71
NtRp981
(dp982
g74
(dp983
g94
g95
ssg83
g977
sg76
(lp984
g424
asbag69
(g90
g71
NtRp985
(dp986
g74
(dp987
g101
g102
ssg83
g977
sg76
(lp988
S':'
asbag69
(g90
g71
NtRp989
(dp990
g74
(dp991
sg83
g977
sg76
(lp992
g69
(g70
g71
NtRp993
(dp994
g74
(dp995
g82
I3
ssg83
g989
sg76
(lp996
S''
asbasbasbag69
(g85
g71
NtRp997
(dp998
g74
(dp999
sg83
g873
sg76
(lp1000
g69
(g90
g71
NtRp1001
(dp1002
g74
(dp1003
g94
g95
ssg83
g997
sg76
(lp1004
g445
asbag69
(g90
g71
NtRp1005
(dp1006
g74
(dp1007
g101
g102
ssg83
g997
sg76
(lp1008
S':'
asbag69
(g90
g71
NtRp1009
(dp1010
g74
(dp1011
sg83
g997
sg76
(lp1012
g69
(g70
g71
NtRp1013
(dp1014
g74
(dp1015
g82
I3
ssg83
g1009
sg76
(lp1016
S''
asbasbasbag69
(g85
g71
NtRp1017
(dp1018
g74
(dp1019
sg83
g873
sg76
(lp1020
g69
(g90
g71
NtRp1021
(dp1022
g74
(dp1023
g94
g95
ssg83
g1017
sg76
(lp1024
g466
asbag69
(g90
g71
NtRp1025
(dp1026
g74
(dp1027
g101
g102
ssg83
g1017
sg76
(lp1028
S':'
asbag69
(g90
g71
NtRp1029
(dp1030
g74
(dp1031
sg83
g1017
sg76
(lp1032
g69
(g70
g71
NtRp1033
(dp1034
g74
(dp1035
g82
I3
ssg83
g1029
sg76
(lp1036
S''
asbasbasbasbasbasbasbag69
(g85
g71
NtRp1037
(dp1038
g74
(dp1039
sg83
g281
sg76
(lp1040
g69
(g90
g71
NtRp1041
(dp1042
g74
(dp1043
g94
g95
ssg83
g1037
sg76
(lp1044
S'SESS35d95846a91240af8cb2705225138145'
p1045
asbag69
(g90
g71
NtRp1046
(dp1047
g74
(dp1048
g101
g102
ssg83
g1037
sg76
(lp1049
S':'
asbag69
(g90
g71
NtRp1050
(dp1051
g74
(dp1052
sg83
g1037
sg76
(lp1053
g69
(g70
g71
NtRp1054
(dp1055
g74
(dp1056
g82
I4
ssg83
g1050
sg76
(lp1057
S'FLgcU_zvztdSAO7Kb2kCaW9Ori5XuAsM9hk2pJO8nfo'
p1058
ag69
(g78
g71
NtRp1059
(dp1060
g74
(dp1061
g82
I3
ssg83
Nsg76
(lp1062
g69
(g85
g71
NtRp1063
(dp1064
g74
(dp1065
sg83
g1059
sg76
(lp1066
g69
(g90
g71
NtRp1067
(dp1068
g74
(dp1069
g94
g95
ssg83
g1063
sg76
(lp1070
g319
asbag69
(g90
g71
NtRp1071
(dp1072
g74
(dp1073
g101
g102
ssg83
g1063
sg76
(lp1074
S':'
asbag69
(g90
g71
NtRp1075
(dp1076
g74
(dp1077
sg83
g1063
sg76
(lp1078
g69
(g70
g71
NtRp1079
(dp1080
g74
(dp1081
g82
I3
ssg83
g1075
sg76
(lp1082
S''
asbasbasbag69
(g85
g71
NtRp1083
(dp1084
g74
(dp1085
sg83
g1059
sg76
(lp1086
g69
(g90
g71
NtRp1087
(dp1088
g74
(dp1089
g94
g95
ssg83
g1083
sg76
(lp1090
g340
asbag69
(g90
g71
NtRp1091
(dp1092
g74
(dp1093
g101
g102
ssg83
g1083
sg76
(lp1094
S':'
asbag69
(g90
g71
NtRp1095
(dp1096
g74
(dp1097
sg83
g1083
sg76
(lp1098
g69
(g70
g71
NtRp1099
(dp1100
g74
(dp1101
g82
I3
ssg83
g1095
sg76
(lp1102
S''
asbasbasbag69
(g85
g71
NtRp1103
(dp1104
g74
(dp1105
sg83
g1059
sg76
(lp1106
g69
(g90
g71
NtRp1107
(dp1108
g74
(dp1109
g94
g95
ssg83
g1103
sg76
(lp1110
g361
asbag69
(g90
g71
NtRp1111
(dp1112
g74
(dp1113
g101
g102
ssg83
g1103
sg76
(lp1114
S':'
asbag69
(g90
g71
NtRp1115
(dp1116
g74
(dp1117
sg83
g1103
sg76
(lp1118
g69
(g70
g71
NtRp1119
(dp1120
g74
(dp1121
g82
I3
ssg83
g1115
sg76
(lp1122
S''
asbasbasbag69
(g85
g71
NtRp1123
(dp1124
g74
(dp1125
sg83
g1059
sg76
(lp1126
g69
(g90
g71
NtRp1127
(dp1128
g74
(dp1129
g94
g95
ssg83
g1123
sg76
(lp1130
g382
asbag69
(g90
g71
NtRp1131
(dp1132
g74
(dp1133
g101
g102
ssg83
g1123
sg76
(lp1134
S':'
asbag69
(g90
g71
NtRp1135
(dp1136
g74
(dp1137
sg83
g1123
sg76
(lp1138
g69
(g70
g71
NtRp1139
(dp1140
g74
(dp1141
g82
I3
ssg83
g1135
sg76
(lp1142
S''
asbasbasbag69
(g85
g71
NtRp1143
(dp1144
g74
(dp1145
sg83
g1059
sg76
(lp1146
g69
(g90
g71
NtRp1147
(dp1148
g74
(dp1149
g94
g95
ssg83
g1143
sg76
(lp1150
g403
asbag69
(g90
g71
NtRp1151
(dp1152
g74
(dp1153
g101
g102
ssg83
g1143
sg76
(lp1154
S':'
asbag69
(g90
g71
NtRp1155
(dp1156
g74
(dp1157
sg83
g1143
sg76
(lp1158
g69
(g70
g71
NtRp1159
(dp1160
g74
(dp1161
g82
I3
ssg83
g1155
sg76
(lp1162
S''
asbasbasbag69
(g85
g71
NtRp1163
(dp1164
g74
(dp1165
sg83
g1059
sg76
(lp1166
g69
(g90
g71
NtRp1167
(dp1168
g74
(dp1169
g94
g95
ssg83
g1163
sg76
(lp1170
g424
asbag69
(g90
g71
NtRp1171
(dp1172
g74
(dp1173
g101
g102
ssg83
g1163
sg76
(lp1174
S':'
asbag69
(g90
g71
NtRp1175
(dp1176
g74
(dp1177
sg83
g1163
sg76
(lp1178
g69
(g70
g71
NtRp1179
(dp1180
g74
(dp1181
g82
I3
ssg83
g1175
sg76
(lp1182
S''
asbasbasbag69
(g85
g71
NtRp1183
(dp1184
g74
(dp1185
sg83
g1059
sg76
(lp1186
g69
(g90
g71
NtRp1187
(dp1188
g74
(dp1189
g94
g95
ssg83
g1183
sg76
(lp1190
g445
asbag69
(g90
g71
NtRp1191
(dp1192
g74
(dp1193
g101
g102
ssg83
g1183
sg76
(lp1194
S':'
asbag69
(g90
g71
NtRp1195
(dp1196
g74
(dp1197
sg83
g1183
sg76
(lp1198
g69
(g70
g71
NtRp1199
(dp1200
g74
(dp1201
g82
I3
ssg83
g1195
sg76
(lp1202
S''
asbasbasbag69
(g85
g71
NtRp1203
(dp1204
g74
(dp1205
sg83
g1059
sg76
(lp1206
g69
(g90
g71
NtRp1207
(dp1208
g74
(dp1209
g94
g95
ssg83
g1203
sg76
(lp1210
g466
asbag69
(g90
g71
NtRp1211
(dp1212
g74
(dp1213
g101
g102
ssg83
g1203
sg76
(lp1214
S':'
asbag69
(g90
g71
NtRp1215
(dp1216
g74
(dp1217
sg83
g1203
sg76
(lp1218
g69
(g70
g71
NtRp1219
(dp1220
g74
(dp1221
g82
I3
ssg83
g1215
sg76
(lp1222
S''
asbasbasbasbasbasbasbag69
(g85
g71
NtRp1223
(dp1224
g74
(dp1225
sg83
g281
sg76
(lp1226
g69
(g90
g71
NtRp1227
(dp1228
g74
(dp1229
g94
g95
ssg83
g1223
sg76
(lp1230
S'SESSbe917cabe6ac66ef61a4a72ddc2195f5'
p1231
asbag69
(g90
g71
NtRp1232
(dp1233
g74
(dp1234
g101
g102
ssg83
g1223
sg76
(lp1235
S':'
asbag69
(g90
g71
NtRp1236
(dp1237
g74
(dp1238
sg83
g1223
sg76
(lp1239
g69
(g70
g71
NtRp1240
(dp1241
g74
(dp1242
g82
I4
ssg83
g1236
sg76
(lp1243
S'yKTtN8-JhU7qkHsgT4I4RbwlAhXil80hTU2UkyxhDrI'
p1244
ag69
(g78
g71
NtRp1245
(dp1246
g74
(dp1247
g82
I3
ssg83
Nsg76
(lp1248
g69
(g85
g71
NtRp1249
(dp1250
g74
(dp1251
sg83
g1245
sg76
(lp1252
g69
(g90
g71
NtRp1253
(dp1254
g74
(dp1255
g94
g95
ssg83
g1249
sg76
(lp1256
g319
asbag69
(g90
g71
NtRp1257
(dp1258
g74
(dp1259
g101
g102
ssg83
g1249
sg76
(lp1260
S':'
asbag69
(g90
g71
NtRp1261
(dp1262
g74
(dp1263
sg83
g1249
sg76
(lp1264
g69
(g70
g71
NtRp1265
(dp1266
g74
(dp1267
g82
I3
ssg83
g1261
sg76
(lp1268
S''
asbasbasbag69
(g85
g71
NtRp1269
(dp1270
g74
(dp1271
sg83
g1245
sg76
(lp1272
g69
(g90
g71
NtRp1273
(dp1274
g74
(dp1275
g94
g95
ssg83
g1269
sg76
(lp1276
g340
asbag69
(g90
g71
NtRp1277
(dp1278
g74
(dp1279
g101
g102
ssg83
g1269
sg76
(lp1280
S':'
asbag69
(g90
g71
NtRp1281
(dp1282
g74
(dp1283
sg83
g1269
sg76
(lp1284
g69
(g70
g71
NtRp1285
(dp1286
g74
(dp1287
g82
I3
ssg83
g1281
sg76
(lp1288
S''
asbasbasbag69
(g85
g71
NtRp1289
(dp1290
g74
(dp1291
sg83
g1245
sg76
(lp1292
g69
(g90
g71
NtRp1293
(dp1294
g74
(dp1295
g94
g95
ssg83
g1289
sg76
(lp1296
g361
asbag69
(g90
g71
NtRp1297
(dp1298
g74
(dp1299
g101
g102
ssg83
g1289
sg76
(lp1300
S':'
asbag69
(g90
g71
NtRp1301
(dp1302
g74
(dp1303
sg83
g1289
sg76
(lp1304
g69
(g70
g71
NtRp1305
(dp1306
g74
(dp1307
g82
I3
ssg83
g1301
sg76
(lp1308
S''
asbasbasbag69
(g85
g71
NtRp1309
(dp1310
g74
(dp1311
sg83
g1245
sg76
(lp1312
g69
(g90
g71
NtRp1313
(dp1314
g74
(dp1315
g94
g95
ssg83
g1309
sg76
(lp1316
g382
asbag69
(g90
g71
NtRp1317
(dp1318
g74
(dp1319
g101
g102
ssg83
g1309
sg76
(lp1320
S':'
asbag69
(g90
g71
NtRp1321
(dp1322
g74
(dp1323
sg83
g1309
sg76
(lp1324
g69
(g70
g71
NtRp1325
(dp1326
g74
(dp1327
g82
I3
ssg83
g1321
sg76
(lp1328
S''
asbasbasbag69
(g85
g71
NtRp1329
(dp1330
g74
(dp1331
sg83
g1245
sg76
(lp1332
g69
(g90
g71
NtRp1333
(dp1334
g74
(dp1335
g94
g95
ssg83
g1329
sg76
(lp1336
g403
asbag69
(g90
g71
NtRp1337
(dp1338
g74
(dp1339
g101
g102
ssg83
g1329
sg76
(lp1340
S':'
asbag69
(g90
g71
NtRp1341
(dp1342
g74
(dp1343
sg83
g1329
sg76
(lp1344
g69
(g70
g71
NtRp1345
(dp1346
g74
(dp1347
g82
I3
ssg83
g1341
sg76
(lp1348
S''
asbasbasbag69
(g85
g71
NtRp1349
(dp1350
g74
(dp1351
sg83
g1245
sg76
(lp1352
g69
(g90
g71
NtRp1353
(dp1354
g74
(dp1355
g94
g95
ssg83
g1349
sg76
(lp1356
g424
asbag69
(g90
g71
NtRp1357
(dp1358
g74
(dp1359
g101
g102
ssg83
g1349
sg76
(lp1360
S':'
asbag69
(g90
g71
NtRp1361
(dp1362
g74
(dp1363
sg83
g1349
sg76
(lp1364
g69
(g70
g71
NtRp1365
(dp1366
g74
(dp1367
g82
I3
ssg83
g1361
sg76
(lp1368
S''
asbasbasbag69
(g85
g71
NtRp1369
(dp1370
g74
(dp1371
sg83
g1245
sg76
(lp1372
g69
(g90
g71
NtRp1373
(dp1374
g74
(dp1375
g94
g95
ssg83
g1369
sg76
(lp1376
g445
asbag69
(g90
g71
NtRp1377
(dp1378
g74
(dp1379
g101
g102
ssg83
g1369
sg76
(lp1380
S':'
asbag69
(g90
g71
NtRp1381
(dp1382
g74
(dp1383
sg83
g1369
sg76
(lp1384
g69
(g70
g71
NtRp1385
(dp1386
g74
(dp1387
g82
I3
ssg83
g1381
sg76
(lp1388
S''
asbasbasbag69
(g85
g71
NtRp1389
(dp1390
g74
(dp1391
sg83
g1245
sg76
(lp1392
g69
(g90
g71
NtRp1393
(dp1394
g74
(dp1395
g94
g95
ssg83
g1389
sg76
(lp1396
g466
asbag69
(g90
g71
NtRp1397
(dp1398
g74
(dp1399
g101
g102
ssg83
g1389
sg76
(lp1400
S':'
asbag69
(g90
g71
NtRp1401
(dp1402
g74
(dp1403
sg83
g1389
sg76
(lp1404
g69
(g70
g71
NtRp1405
(dp1406
g74
(dp1407
g82
I3
ssg83
g1401
sg76
(lp1408
S''
asbasbasbasbasbasbasbag69
(g85
g71
NtRp1409
(dp1410
g74
(dp1411
sg83
g281
sg76
(lp1412
g69
(g90
g71
NtRp1413
(dp1414
g74
(dp1415
g94
g95
ssg83
g1409
sg76
(lp1416
S'has_js'
p1417
asbag69
(g90
g71
NtRp1418
(dp1419
g74
(dp1420
g101
g102
ssg83
g1409
sg76
(lp1421
S':'
asbag69
(g90
g71
NtRp1422
(dp1423
g74
(dp1424
sg83
g1409
sg76
(lp1425
g69
(g70
g71
NtRp1426
(dp1427
g74
(dp1428
g82
I4
ssg83
g1422
sg76
(lp1429
S'1'
ag69
(g78
g71
NtRp1430
(dp1431
g74
(dp1432
g82
I3
ssg83
Nsg76
(lp1433
g69
(g85
g71
NtRp1434
(dp1435
g74
(dp1436
sg83
g1430
sg76
(lp1437
g69
(g90
g71
NtRp1438
(dp1439
g74
(dp1440
g94
g95
ssg83
g1434
sg76
(lp1441
g319
asbag69
(g90
g71
NtRp1442
(dp1443
g74
(dp1444
g101
g102
ssg83
g1434
sg76
(lp1445
S':'
asbag69
(g90
g71
NtRp1446
(dp1447
g74
(dp1448
sg83
g1434
sg76
(lp1449
g69
(g70
g71
NtRp1450
(dp1451
g74
(dp1452
g82
I3
ssg83
g1446
sg76
(lp1453
S''
asbasbasbag69
(g85
g71
NtRp1454
(dp1455
g74
(dp1456
sg83
g1430
sg76
(lp1457
g69
(g90
g71
NtRp1458
(dp1459
g74
(dp1460
g94
g95
ssg83
g1454
sg76
(lp1461
g340
asbag69
(g90
g71
NtRp1462
(dp1463
g74
(dp1464
g101
g102
ssg83
g1454
sg76
(lp1465
S':'
asbag69
(g90
g71
NtRp1466
(dp1467
g74
(dp1468
sg83
g1454
sg76
(lp1469
g69
(g70
g71
NtRp1470
(dp1471
g74
(dp1472
g82
I3
ssg83
g1466
sg76
(lp1473
S''
asbasbasbag69
(g85
g71
NtRp1474
(dp1475
g74
(dp1476
sg83
g1430
sg76
(lp1477
g69
(g90
g71
NtRp1478
(dp1479
g74
(dp1480
g94
g95
ssg83
g1474
sg76
(lp1481
g361
asbag69
(g90
g71
NtRp1482
(dp1483
g74
(dp1484
g101
g102
ssg83
g1474
sg76
(lp1485
S':'
asbag69
(g90
g71
NtRp1486
(dp1487
g74
(dp1488
sg83
g1474
sg76
(lp1489
g69
(g70
g71
NtRp1490
(dp1491
g74
(dp1492
g82
I3
ssg83
g1486
sg76
(lp1493
S''
asbasbasbag69
(g85
g71
NtRp1494
(dp1495
g74
(dp1496
sg83
g1430
sg76
(lp1497
g69
(g90
g71
NtRp1498
(dp1499
g74
(dp1500
g94
g95
ssg83
g1494
sg76
(lp1501
g382
asbag69
(g90
g71
NtRp1502
(dp1503
g74
(dp1504
g101
g102
ssg83
g1494
sg76
(lp1505
S':'
asbag69
(g90
g71
NtRp1506
(dp1507
g74
(dp1508
sg83
g1494
sg76
(lp1509
g69
(g70
g71
NtRp1510
(dp1511
g74
(dp1512
g82
I3
ssg83
g1506
sg76
(lp1513
S''
asbasbasbag69
(g85
g71
NtRp1514
(dp1515
g74
(dp1516
sg83
g1430
sg76
(lp1517
g69
(g90
g71
NtRp1518
(dp1519
g74
(dp1520
g94
g95
ssg83
g1514
sg76
(lp1521
g403
asbag69
(g90
g71
NtRp1522
(dp1523
g74
(dp1524
g101
g102
ssg83
g1514
sg76
(lp1525
S':'
asbag69
(g90
g71
NtRp1526
(dp1527
g74
(dp1528
sg83
g1514
sg76
(lp1529
g69
(g70
g71
NtRp1530
(dp1531
g74
(dp1532
g82
I3
ssg83
g1526
sg76
(lp1533
S''
asbasbasbag69
(g85
g71
NtRp1534
(dp1535
g74
(dp1536
sg83
g1430
sg76
(lp1537
g69
(g90
g71
NtRp1538
(dp1539
g74
(dp1540
g94
g95
ssg83
g1534
sg76
(lp1541
g424
asbag69
(g90
g71
NtRp1542
(dp1543
g74
(dp1544
g101
g102
ssg83
g1534
sg76
(lp1545
S':'
asbag69
(g90
g71
NtRp1546
(dp1547
g74
(dp1548
sg83
g1534
sg76
(lp1549
g69
(g70
g71
NtRp1550
(dp1551
g74
(dp1552
g82
I3
ssg83
g1546
sg76
(lp1553
S''
asbasbasbag69
(g85
g71
NtRp1554
(dp1555
g74
(dp1556
sg83
g1430
sg76
(lp1557
g69
(g90
g71
NtRp1558
(dp1559
g74
(dp1560
g94
g95
ssg83
g1554
sg76
(lp1561
g445
asbag69
(g90
g71
NtRp1562
(dp1563
g74
(dp1564
g101
g102
ssg83
g1554
sg76
(lp1565
S':'
asbag69
(g90
g71
NtRp1566
(dp1567
g74
(dp1568
sg83
g1554
sg76
(lp1569
g69
(g70
g71
NtRp1570
(dp1571
g74
(dp1572
g82
I3
ssg83
g1566
sg76
(lp1573
S''
asbasbasbag69
(g85
g71
NtRp1574
(dp1575
g74
(dp1576
sg83
g1430
sg76
(lp1577
g69
(g90
g71
NtRp1578
(dp1579
g74
(dp1580
g94
g95
ssg83
g1574
sg76
(lp1581
g466
asbag69
(g90
g71
NtRp1582
(dp1583
g74
(dp1584
g101
g102
ssg83
g1574
sg76
(lp1585
S':'
asbag69
(g90
g71
NtRp1586
(dp1587
g74
(dp1588
sg83
g1574
sg76
(lp1589
g69
(g70
g71
NtRp1590
(dp1591
g74
(dp1592
g82
I3
ssg83
g1586
sg76
(lp1593
S''
asbasbasbasbasbasbasbag69
(g85
g71
NtRp1594
(dp1595
g74
(dp1596
sg83
g281
sg76
(lp1597
g69
(g90
g71
NtRp1598
(dp1599
g74
(dp1600
g94
g95
ssg83
g1594
sg76
(lp1601
S'jpanesliders_panel-sliders'
p1602
asbag69
(g90
g71
NtRp1603
(dp1604
g74
(dp1605
g101
g102
ssg83
g1594
sg76
(lp1606
S':'
asbag69
(g90
g71
NtRp1607
(dp1608
g74
(dp1609
sg83
g1594
sg76
(lp1610
g69
(g70
g71
NtRp1611
(dp1612
g74
(dp1613
g82
I4
ssg83
g1607
sg76
(lp1614
S'0'
ag69
(g78
g71
NtRp1615
(dp1616
g74
(dp1617
g82
I3
ssg83
Nsg76
(lp1618
g69
(g85
g71
NtRp1619
(dp1620
g74
(dp1621
sg83
g1615
sg76
(lp1622
g69
(g90
g71
NtRp1623
(dp1624
g74
(dp1625
g94
g95
ssg83
g1619
sg76
(lp1626
g319
asbag69
(g90
g71
NtRp1627
(dp1628
g74
(dp1629
g101
g102
ssg83
g1619
sg76
(lp1630
S':'
asbag69
(g90
g71
NtRp1631
(dp1632
g74
(dp1633
sg83
g1619
sg76
(lp1634
g69
(g70
g71
NtRp1635
(dp1636
g74
(dp1637
g82
I3
ssg83
g1631
sg76
(lp1638
S''
asbasbasbag69
(g85
g71
NtRp1639
(dp1640
g74
(dp1641
sg83
g1615
sg76
(lp1642
g69
(g90
g71
NtRp1643
(dp1644
g74
(dp1645
g94
g95
ssg83
g1639
sg76
(lp1646
g340
asbag69
(g90
g71
NtRp1647
(dp1648
g74
(dp1649
g101
g102
ssg83
g1639
sg76
(lp1650
S':'
asbag69
(g90
g71
NtRp1651
(dp1652
g74
(dp1653
sg83
g1639
sg76
(lp1654
g69
(g70
g71
NtRp1655
(dp1656
g74
(dp1657
g82
I3
ssg83
g1651
sg76
(lp1658
S''
asbasbasbag69
(g85
g71
NtRp1659
(dp1660
g74
(dp1661
sg83
g1615
sg76
(lp1662
g69
(g90
g71
NtRp1663
(dp1664
g74
(dp1665
g94
g95
ssg83
g1659
sg76
(lp1666
g361
asbag69
(g90
g71
NtRp1667
(dp1668
g74
(dp1669
g101
g102
ssg83
g1659
sg76
(lp1670
S':'
asbag69
(g90
g71
NtRp1671
(dp1672
g74
(dp1673
sg83
g1659
sg76
(lp1674
g69
(g70
g71
NtRp1675
(dp1676
g74
(dp1677
g82
I3
ssg83
g1671
sg76
(lp1678
S''
asbasbasbag69
(g85
g71
NtRp1679
(dp1680
g74
(dp1681
sg83
g1615
sg76
(lp1682
g69
(g90
g71
NtRp1683
(dp1684
g74
(dp1685
g94
g95
ssg83
g1679
sg76
(lp1686
g382
asbag69
(g90
g71
NtRp1687
(dp1688
g74
(dp1689
g101
g102
ssg83
g1679
sg76
(lp1690
S':'
asbag69
(g90
g71
NtRp1691
(dp1692
g74
(dp1693
sg83
g1679
sg76
(lp1694
g69
(g70
g71
NtRp1695
(dp1696
g74
(dp1697
g82
I3
ssg83
g1691
sg76
(lp1698
S''
asbasbasbag69
(g85
g71
NtRp1699
(dp1700
g74
(dp1701
sg83
g1615
sg76
(lp1702
g69
(g90
g71
NtRp1703
(dp1704
g74
(dp1705
g94
g95
ssg83
g1699
sg76
(lp1706
g403
asbag69
(g90
g71
NtRp1707
(dp1708
g74
(dp1709
g101
g102
ssg83
g1699
sg76
(lp1710
S':'
asbag69
(g90
g71
NtRp1711
(dp1712
g74
(dp1713
sg83
g1699
sg76
(lp1714
g69
(g70
g71
NtRp1715
(dp1716
g74
(dp1717
g82
I3
ssg83
g1711
sg76
(lp1718
S''
asbasbasbag69
(g85
g71
NtRp1719
(dp1720
g74
(dp1721
sg83
g1615
sg76
(lp1722
g69
(g90
g71
NtRp1723
(dp1724
g74
(dp1725
g94
g95
ssg83
g1719
sg76
(lp1726
g424
asbag69
(g90
g71
NtRp1727
(dp1728
g74
(dp1729
g101
g102
ssg83
g1719
sg76
(lp1730
S':'
asbag69
(g90
g71
NtRp1731
(dp1732
g74
(dp1733
sg83
g1719
sg76
(lp1734
g69
(g70
g71
NtRp1735
(dp1736
g74
(dp1737
g82
I3
ssg83
g1731
sg76
(lp1738
S''
asbasbasbag69
(g85
g71
NtRp1739
(dp1740
g74
(dp1741
sg83
g1615
sg76
(lp1742
g69
(g90
g71
NtRp1743
(dp1744
g74
(dp1745
g94
g95
ssg83
g1739
sg76
(lp1746
g445
asbag69
(g90
g71
NtRp1747
(dp1748
g74
(dp1749
g101
g102
ssg83
g1739
sg76
(lp1750
S':'
asbag69
(g90
g71
NtRp1751
(dp1752
g74
(dp1753
sg83
g1739
sg76
(lp1754
g69
(g70
g71
NtRp1755
(dp1756
g74
(dp1757
g82
I3
ssg83
g1751
sg76
(lp1758
S''
asbasbasbag69
(g85
g71
NtRp1759
(dp1760
g74
(dp1761
sg83
g1615
sg76
(lp1762
g69
(g90
g71
NtRp1763
(dp1764
g74
(dp1765
g94
g95
ssg83
g1759
sg76
(lp1766
g466
asbag69
(g90
g71
NtRp1767
(dp1768
g74
(dp1769
g101
g102
ssg83
g1759
sg76
(lp1770
S':'
asbag69
(g90
g71
NtRp1771
(dp1772
g74
(dp1773
sg83
g1759
sg76
(lp1774
g69
(g70
g71
NtRp1775
(dp1776
g74
(dp1777
g82
I3
ssg83
g1771
sg76
(lp1778
S''
asbasbasbasbasbasbasbag69
(g85
g71
NtRp1779
(dp1780
g74
(dp1781
sg83
g281
sg76
(lp1782
g69
(g90
g71
NtRp1783
(dp1784
g74
(dp1785
g94
g95
ssg83
g1779
sg76
(lp1786
S'jpanesliders_template-sliders-4'
p1787
asbag69
(g90
g71
NtRp1788
(dp1789
g74
(dp1790
g101
g102
ssg83
g1779
sg76
(lp1791
S':'
asbag69
(g90
g71
NtRp1792
(dp1793
g74
(dp1794
sg83
g1779
sg76
(lp1795
g69
(g70
g71
NtRp1796
(dp1797
g74
(dp1798
g82
I4
ssg83
g1792
sg76
(lp1799
S'0'
ag69
(g78
g71
NtRp1800
(dp1801
g74
(dp1802
g82
I3
ssg83
Nsg76
(lp1803
g69
(g85
g71
NtRp1804
(dp1805
g74
(dp1806
sg83
g1800
sg76
(lp1807
g69
(g90
g71
NtRp1808
(dp1809
g74
(dp1810
g94
g95
ssg83
g1804
sg76
(lp1811
g319
asbag69
(g90
g71
NtRp1812
(dp1813
g74
(dp1814
g101
g102
ssg83
g1804
sg76
(lp1815
S':'
asbag69
(g90
g71
NtRp1816
(dp1817
g74
(dp1818
sg83
g1804
sg76
(lp1819
g69
(g70
g71
NtRp1820
(dp1821
g74
(dp1822
g82
I3
ssg83
g1816
sg76
(lp1823
S''
asbasbasbag69
(g85
g71
NtRp1824
(dp1825
g74
(dp1826
sg83
g1800
sg76
(lp1827
g69
(g90
g71
NtRp1828
(dp1829
g74
(dp1830
g94
g95
ssg83
g1824
sg76
(lp1831
g340
asbag69
(g90
g71
NtRp1832
(dp1833
g74
(dp1834
g101
g102
ssg83
g1824
sg76
(lp1835
S':'
asbag69
(g90
g71
NtRp1836
(dp1837
g74
(dp1838
sg83
g1824
sg76
(lp1839
g69
(g70
g71
NtRp1840
(dp1841
g74
(dp1842
g82
I3
ssg83
g1836
sg76
(lp1843
S''
asbasbasbag69
(g85
g71
NtRp1844
(dp1845
g74
(dp1846
sg83
g1800
sg76
(lp1847
g69
(g90
g71
NtRp1848
(dp1849
g74
(dp1850
g94
g95
ssg83
g1844
sg76
(lp1851
g361
asbag69
(g90
g71
NtRp1852
(dp1853
g74
(dp1854
g101
g102
ssg83
g1844
sg76
(lp1855
S':'
asbag69
(g90
g71
NtRp1856
(dp1857
g74
(dp1858
sg83
g1844
sg76
(lp1859
g69
(g70
g71
NtRp1860
(dp1861
g74
(dp1862
g82
I3
ssg83
g1856
sg76
(lp1863
S''
asbasbasbag69
(g85
g71
NtRp1864
(dp1865
g74
(dp1866
sg83
g1800
sg76
(lp1867
g69
(g90
g71
NtRp1868
(dp1869
g74
(dp1870
g94
g95
ssg83
g1864
sg76
(lp1871
g382
asbag69
(g90
g71
NtRp1872
(dp1873
g74
(dp1874
g101
g102
ssg83
g1864
sg76
(lp1875
S':'
asbag69
(g90
g71
NtRp1876
(dp1877
g74
(dp1878
sg83
g1864
sg76
(lp1879
g69
(g70
g71
NtRp1880
(dp1881
g74
(dp1882
g82
I3
ssg83
g1876
sg76
(lp1883
S''
asbasbasbag69
(g85
g71
NtRp1884
(dp1885
g74
(dp1886
sg83
g1800
sg76
(lp1887
g69
(g90
g71
NtRp1888
(dp1889
g74
(dp1890
g94
g95
ssg83
g1884
sg76
(lp1891
g403
asbag69
(g90
g71
NtRp1892
(dp1893
g74
(dp1894
g101
g102
ssg83
g1884
sg76
(lp1895
S':'
asbag69
(g90
g71
NtRp1896
(dp1897
g74
(dp1898
sg83
g1884
sg76
(lp1899
g69
(g70
g71
NtRp1900
(dp1901
g74
(dp1902
g82
I3
ssg83
g1896
sg76
(lp1903
S''
asbasbasbag69
(g85
g71
NtRp1904
(dp1905
g74
(dp1906
sg83
g1800
sg76
(lp1907
g69
(g90
g71
NtRp1908
(dp1909
g74
(dp1910
g94
g95
ssg83
g1904
sg76
(lp1911
g424
asbag69
(g90
g71
NtRp1912
(dp1913
g74
(dp1914
g101
g102
ssg83
g1904
sg76
(lp1915
S':'
asbag69
(g90
g71
NtRp1916
(dp1917
g74
(dp1918
sg83
g1904
sg76
(lp1919
g69
(g70
g71
NtRp1920
(dp1921
g74
(dp1922
g82
I3
ssg83
g1916
sg76
(lp1923
S''
asbasbasbag69
(g85
g71
NtRp1924
(dp1925
g74
(dp1926
sg83
g1800
sg76
(lp1927
g69
(g90
g71
NtRp1928
(dp1929
g74
(dp1930
g94
g95
ssg83
g1924
sg76
(lp1931
g445
asbag69
(g90
g71
NtRp1932
(dp1933
g74
(dp1934
g101
g102
ssg83
g1924
sg76
(lp1935
S':'
asbag69
(g90
g71
NtRp1936
(dp1937
g74
(dp1938
sg83
g1924
sg76
(lp1939
g69
(g70
g71
NtRp1940
(dp1941
g74
(dp1942
g82
I3
ssg83
g1936
sg76
(lp1943
S''
asbasbasbag69
(g85
g71
NtRp1944
(dp1945
g74
(dp1946
sg83
g1800
sg76
(lp1947
g69
(g90
g71
NtRp1948
(dp1949
g74
(dp1950
g94
g95
ssg83
g1944
sg76
(lp1951
g466
asbag69
(g90
g71
NtRp1952
(dp1953
g74
(dp1954
g101
g102
ssg83
g1944
sg76
(lp1955
S':'
asbag69
(g90
g71
NtRp1956
(dp1957
g74
(dp1958
sg83
g1944
sg76
(lp1959
g69
(g70
g71
NtRp1960
(dp1961
g74
(dp1962
g82
I3
ssg83
g1956
sg76
(lp1963
S''
asbasbasbasbasbasbasbag69
(g85
g71
NtRp1964
(dp1965
g74
(dp1966
sg83
g281
sg76
(lp1967
g69
(g90
g71
NtRp1968
(dp1969
g74
(dp1970
g94
g95
ssg83
g1964
sg76
(lp1971
S'session_id_admin'
p1972
asbag69
(g90
g71
NtRp1973
(dp1974
g74
(dp1975
g101
g102
ssg83
g1964
sg76
(lp1976
S':'
asbag69
(g90
g71
NtRp1977
(dp1978
g74
(dp1979
sg83
g1964
sg76
(lp1980
g69
(g70
g71
NtRp1981
(dp1982
g74
(dp1983
g82
I4
ssg83
g1977
sg76
(lp1984
S'127.0.0.1-78cfdcb4-d1af-4846-87fb-31990a17b899'
p1985
ag69
(g78
g71
NtRp1986
(dp1987
g74
(dp1988
g82
I3
ssg83
Nsg76
(lp1989
g69
(g85
g71
NtRp1990
(dp1991
g74
(dp1992
sg83
g1986
sg76
(lp1993
g69
(g90
g71
NtRp1994
(dp1995
g74
(dp1996
g94
g95
ssg83
g1990
sg76
(lp1997
g319
asbag69
(g90
g71
NtRp1998
(dp1999
g74
(dp2000
g101
g102
ssg83
g1990
sg76
(lp2001
S':'
asbag69
(g90
g71
NtRp2002
(dp2003
g74
(dp2004
sg83
g1990
sg76
(lp2005
g69
(g70
g71
NtRp2006
(dp2007
g74
(dp2008
g82
I3
ssg83
g2002
sg76
(lp2009
S''
asbasbasbag69
(g85
g71
NtRp2010
(dp2011
g74
(dp2012
sg83
g1986
sg76
(lp2013
g69
(g90
g71
NtRp2014
(dp2015
g74
(dp2016
g94
g95
ssg83
g2010
sg76
(lp2017
g340
asbag69
(g90
g71
NtRp2018
(dp2019
g74
(dp2020
g101
g102
ssg83
g2010
sg76
(lp2021
S':'
asbag69
(g90
g71
NtRp2022
(dp2023
g74
(dp2024
sg83
g2010
sg76
(lp2025
g69
(g70
g71
NtRp2026
(dp2027
g74
(dp2028
g82
I3
ssg83
g2022
sg76
(lp2029
S''
asbasbasbag69
(g85
g71
NtRp2030
(dp2031
g74
(dp2032
sg83
g1986
sg76
(lp2033
g69
(g90
g71
NtRp2034
(dp2035
g74
(dp2036
g94
g95
ssg83
g2030
sg76
(lp2037
g361
asbag69
(g90
g71
NtRp2038
(dp2039
g74
(dp2040
g101
g102
ssg83
g2030
sg76
(lp2041
S':'
asbag69
(g90
g71
NtRp2042
(dp2043
g74
(dp2044
sg83
g2030
sg76
(lp2045
g69
(g70
g71
NtRp2046
(dp2047
g74
(dp2048
g82
I3
ssg83
g2042
sg76
(lp2049
S''
asbasbasbag69
(g85
g71
NtRp2050
(dp2051
g74
(dp2052
sg83
g1986
sg76
(lp2053
g69
(g90
g71
NtRp2054
(dp2055
g74
(dp2056
g94
g95
ssg83
g2050
sg76
(lp2057
g382
asbag69
(g90
g71
NtRp2058
(dp2059
g74
(dp2060
g101
g102
ssg83
g2050
sg76
(lp2061
S':'
asbag69
(g90
g71
NtRp2062
(dp2063
g74
(dp2064
sg83
g2050
sg76
(lp2065
g69
(g70
g71
NtRp2066
(dp2067
g74
(dp2068
g82
I3
ssg83
g2062
sg76
(lp2069
S''
asbasbasbag69
(g85
g71
NtRp2070
(dp2071
g74
(dp2072
sg83
g1986
sg76
(lp2073
g69
(g90
g71
NtRp2074
(dp2075
g74
(dp2076
g94
g95
ssg83
g2070
sg76
(lp2077
g403
asbag69
(g90
g71
NtRp2078
(dp2079
g74
(dp2080
g101
g102
ssg83
g2070
sg76
(lp2081
S':'
asbag69
(g90
g71
NtRp2082
(dp2083
g74
(dp2084
sg83
g2070
sg76
(lp2085
g69
(g70
g71
NtRp2086
(dp2087
g74
(dp2088
g82
I3
ssg83
g2082
sg76
(lp2089
S''
asbasbasbag69
(g85
g71
NtRp2090
(dp2091
g74
(dp2092
sg83
g1986
sg76
(lp2093
g69
(g90
g71
NtRp2094
(dp2095
g74
(dp2096
g94
g95
ssg83
g2090
sg76
(lp2097
g424
asbag69
(g90
g71
NtRp2098
(dp2099
g74
(dp2100
g101
g102
ssg83
g2090
sg76
(lp2101
S':'
asbag69
(g90
g71
NtRp2102
(dp2103
g74
(dp2104
sg83
g2090
sg76
(lp2105
g69
(g70
g71
NtRp2106
(dp2107
g74
(dp2108
g82
I3
ssg83
g2102
sg76
(lp2109
S''
asbasbasbag69
(g85
g71
NtRp2110
(dp2111
g74
(dp2112
sg83
g1986
sg76
(lp2113
g69
(g90
g71
NtRp2114
(dp2115
g74
(dp2116
g94
g95
ssg83
g2110
sg76
(lp2117
g445
asbag69
(g90
g71
NtRp2118
(dp2119
g74
(dp2120
g101
g102
ssg83
g2110
sg76
(lp2121
S':'
asbag69
(g90
g71
NtRp2122
(dp2123
g74
(dp2124
sg83
g2110
sg76
(lp2125
g69
(g70
g71
NtRp2126
(dp2127
g74
(dp2128
g82
I3
ssg83
g2122
sg76
(lp2129
S''
asbasbasbag69
(g85
g71
NtRp2130
(dp2131
g74
(dp2132
sg83
g1986
sg76
(lp2133
g69
(g90
g71
NtRp2134
(dp2135
g74
(dp2136
g94
g95
ssg83
g2130
sg76
(lp2137
g466
asbag69
(g90
g71
NtRp2138
(dp2139
g74
(dp2140
g101
g102
ssg83
g2130
sg76
(lp2141
S':'
asbag69
(g90
g71
NtRp2142
(dp2143
g74
(dp2144
sg83
g2130
sg76
(lp2145
g69
(g70
g71
NtRp2146
(dp2147
g74
(dp2148
g82
I3
ssg83
g2142
sg76
(lp2149
S''
asbasbasbasbasbasbasbag69
(g85
g71
NtRp2150
(dp2151
g74
(dp2152
sg83
g281
sg76
(lp2153
g69
(g90
g71
NtRp2154
(dp2155
g74
(dp2156
g94
g95
ssg83
g2150
sg76
(lp2157
S'session_id_pythoncheck'
p2158
asbag69
(g90
g71
NtRp2159
(dp2160
g74
(dp2161
g101
g102
ssg83
g2150
sg76
(lp2162
S':'
asbag69
(g90
g71
NtRp2163
(dp2164
g74
(dp2165
sg83
g2150
sg76
(lp2166
g69
(g70
g71
NtRp2167
(dp2168
g74
(dp2169
g82
I4
ssg83
g2163
sg76
(lp2170
S'127.0.0.1-abcdf534-80cd-4b45-82bb-3b11e39875cc'
p2171
ag69
(g78
g71
NtRp2172
(dp2173
g74
(dp2174
g82
I3
ssg83
Nsg76
(lp2175
g69
(g85
g71
NtRp2176
(dp2177
g74
(dp2178
sg83
g2172
sg76
(lp2179
g69
(g90
g71
NtRp2180
(dp2181
g74
(dp2182
g94
g95
ssg83
g2176
sg76
(lp2183
g319
asbag69
(g90
g71
NtRp2184
(dp2185
g74
(dp2186
g101
g102
ssg83
g2176
sg76
(lp2187
S':'
asbag69
(g90
g71
NtRp2188
(dp2189
g74
(dp2190
sg83
g2176
sg76
(lp2191
g69
(g70
g71
NtRp2192
(dp2193
g74
(dp2194
g82
I3
ssg83
g2188
sg76
(lp2195
S''
asbasbasbag69
(g85
g71
NtRp2196
(dp2197
g74
(dp2198
sg83
g2172
sg76
(lp2199
g69
(g90
g71
NtRp2200
(dp2201
g74
(dp2202
g94
g95
ssg83
g2196
sg76
(lp2203
g340
asbag69
(g90
g71
NtRp2204
(dp2205
g74
(dp2206
g101
g102
ssg83
g2196
sg76
(lp2207
S':'
asbag69
(g90
g71
NtRp2208
(dp2209
g74
(dp2210
sg83
g2196
sg76
(lp2211
g69
(g70
g71
NtRp2212
(dp2213
g74
(dp2214
g82
I3
ssg83
g2208
sg76
(lp2215
S''
asbasbasbag69
(g85
g71
NtRp2216
(dp2217
g74
(dp2218
sg83
g2172
sg76
(lp2219
g69
(g90
g71
NtRp2220
(dp2221
g74
(dp2222
g94
g95
ssg83
g2216
sg76
(lp2223
g361
asbag69
(g90
g71
NtRp2224
(dp2225
g74
(dp2226
g101
g102
ssg83
g2216
sg76
(lp2227
S':'
asbag69
(g90
g71
NtRp2228
(dp2229
g74
(dp2230
sg83
g2216
sg76
(lp2231
g69
(g70
g71
NtRp2232
(dp2233
g74
(dp2234
g82
I3
ssg83
g2228
sg76
(lp2235
S''
asbasbasbag69
(g85
g71
NtRp2236
(dp2237
g74
(dp2238
sg83
g2172
sg76
(lp2239
g69
(g90
g71
NtRp2240
(dp2241
g74
(dp2242
g94
g95
ssg83
g2236
sg76
(lp2243
g382
asbag69
(g90
g71
NtRp2244
(dp2245
g74
(dp2246
g101
g102
ssg83
g2236
sg76
(lp2247
S':'
asbag69
(g90
g71
NtRp2248
(dp2249
g74
(dp2250
sg83
g2236
sg76
(lp2251
g69
(g70
g71
NtRp2252
(dp2253
g74
(dp2254
g82
I3
ssg83
g2248
sg76
(lp2255
S''
asbasbasbag69
(g85
g71
NtRp2256
(dp2257
g74
(dp2258
sg83
g2172
sg76
(lp2259
g69
(g90
g71
NtRp2260
(dp2261
g74
(dp2262
g94
g95
ssg83
g2256
sg76
(lp2263
g403
asbag69
(g90
g71
NtRp2264
(dp2265
g74
(dp2266
g101
g102
ssg83
g2256
sg76
(lp2267
S':'
asbag69
(g90
g71
NtRp2268
(dp2269
g74
(dp2270
sg83
g2256
sg76
(lp2271
g69
(g70
g71
NtRp2272
(dp2273
g74
(dp2274
g82
I3
ssg83
g2268
sg76
(lp2275
S''
asbasbasbag69
(g85
g71
NtRp2276
(dp2277
g74
(dp2278
sg83
g2172
sg76
(lp2279
g69
(g90
g71
NtRp2280
(dp2281
g74
(dp2282
g94
g95
ssg83
g2276
sg76
(lp2283
g424
asbag69
(g90
g71
NtRp2284
(dp2285
g74
(dp2286
g101
g102
ssg83
g2276
sg76
(lp2287
S':'
asbag69
(g90
g71
NtRp2288
(dp2289
g74
(dp2290
sg83
g2276
sg76
(lp2291
g69
(g70
g71
NtRp2292
(dp2293
g74
(dp2294
g82
I3
ssg83
g2288
sg76
(lp2295
S''
asbasbasbag69
(g85
g71
NtRp2296
(dp2297
g74
(dp2298
sg83
g2172
sg76
(lp2299
g69
(g90
g71
NtRp2300
(dp2301
g74
(dp2302
g94
g95
ssg83
g2296
sg76
(lp2303
g445
asbag69
(g90
g71
NtRp2304
(dp2305
g74
(dp2306
g101
g102
ssg83
g2296
sg76
(lp2307
S':'
asbag69
(g90
g71
NtRp2308
(dp2309
g74
(dp2310
sg83
g2296
sg76
(lp2311
g69
(g70
g71
NtRp2312
(dp2313
g74
(dp2314
g82
I3
ssg83
g2308
sg76
(lp2315
S''
asbasbasbag69
(g85
g71
NtRp2316
(dp2317
g74
(dp2318
sg83
g2172
sg76
(lp2319
g69
(g90
g71
NtRp2320
(dp2321
g74
(dp2322
g94
g95
ssg83
g2316
sg76
(lp2323
g466
asbag69
(g90
g71
NtRp2324
(dp2325
g74
(dp2326
g101
g102
ssg83
g2316
sg76
(lp2327
S':'
asbag69
(g90
g71
NtRp2328
(dp2329
g74
(dp2330
sg83
g2316
sg76
(lp2331
g69
(g70
g71
NtRp2332
(dp2333
g74
(dp2334
g82
I3
ssg83
g2328
sg76
(lp2335
S''
asbasbasbasbasbasbasbag69
(g85
g71
NtRp2336
(dp2337
g74
(dp2338
sg83
g281
sg76
(lp2339
g69
(g90
g71
NtRp2340
(dp2341
g74
(dp2342
g94
g95
ssg83
g2336
sg76
(lp2343
S'session_id_welcome'
p2344
asbag69
(g90
g71
NtRp2345
(dp2346
g74
(dp2347
g101
g102
ssg83
g2336
sg76
(lp2348
S':'
asbag69
(g90
g71
NtRp2349
(dp2350
g74
(dp2351
sg83
g2336
sg76
(lp2352
g69
(g70
g71
NtRp2353
(dp2354
g74
(dp2355
g82
I4
ssg83
g2349
sg76
(lp2356
S'127.0.0.1-35921092-8c7a-4d99-a981-90cae28a3b62'
p2357
ag69
(g78
g71
NtRp2358
(dp2359
g74
(dp2360
g82
I3
ssg83
Nsg76
(lp2361
g69
(g85
g71
NtRp2362
(dp2363
g74
(dp2364
sg83
g2358
sg76
(lp2365
g69
(g90
g71
NtRp2366
(dp2367
g74
(dp2368
g94
g95
ssg83
g2362
sg76
(lp2369
g319
asbag69
(g90
g71
NtRp2370
(dp2371
g74
(dp2372
g101
g102
ssg83
g2362
sg76
(lp2373
S':'
asbag69
(g90
g71
NtRp2374
(dp2375
g74
(dp2376
sg83
g2362
sg76
(lp2377
g69
(g70
g71
NtRp2378
(dp2379
g74
(dp2380
g82
I3
ssg83
g2374
sg76
(lp2381
S''
asbasbasbag69
(g85
g71
NtRp2382
(dp2383
g74
(dp2384
sg83
g2358
sg76
(lp2385
g69
(g90
g71
NtRp2386
(dp2387
g74
(dp2388
g94
g95
ssg83
g2382
sg76
(lp2389
g340
asbag69
(g90
g71
NtRp2390
(dp2391
g74
(dp2392
g101
g102
ssg83
g2382
sg76
(lp2393
S':'
asbag69
(g90
g71
NtRp2394
(dp2395
g74
(dp2396
sg83
g2382
sg76
(lp2397
g69
(g70
g71
NtRp2398
(dp2399
g74
(dp2400
g82
I3
ssg83
g2394
sg76
(lp2401
S''
asbasbasbag69
(g85
g71
NtRp2402
(dp2403
g74
(dp2404
sg83
g2358
sg76
(lp2405
g69
(g90
g71
NtRp2406
(dp2407
g74
(dp2408
g94
g95
ssg83
g2402
sg76
(lp2409
g361
asbag69
(g90
g71
NtRp2410
(dp2411
g74
(dp2412
g101
g102
ssg83
g2402
sg76
(lp2413
S':'
asbag69
(g90
g71
NtRp2414
(dp2415
g74
(dp2416
sg83
g2402
sg76
(lp2417
g69
(g70
g71
NtRp2418
(dp2419
g74
(dp2420
g82
I3
ssg83
g2414
sg76
(lp2421
S''
asbasbasbag69
(g85
g71
NtRp2422
(dp2423
g74
(dp2424
sg83
g2358
sg76
(lp2425
g69
(g90
g71
NtRp2426
(dp2427
g74
(dp2428
g94
g95
ssg83
g2422
sg76
(lp2429
g382
asbag69
(g90
g71
NtRp2430
(dp2431
g74
(dp2432
g101
g102
ssg83
g2422
sg76
(lp2433
S':'
asbag69
(g90
g71
NtRp2434
(dp2435
g74
(dp2436
sg83
g2422
sg76
(lp2437
g69
(g70
g71
NtRp2438
(dp2439
g74
(dp2440
g82
I3
ssg83
g2434
sg76
(lp2441
S''
asbasbasbag69
(g85
g71
NtRp2442
(dp2443
g74
(dp2444
sg83
g2358
sg76
(lp2445
g69
(g90
g71
NtRp2446
(dp2447
g74
(dp2448
g94
g95
ssg83
g2442
sg76
(lp2449
g403
asbag69
(g90
g71
NtRp2450
(dp2451
g74
(dp2452
g101
g102
ssg83
g2442
sg76
(lp2453
S':'
asbag69
(g90
g71
NtRp2454
(dp2455
g74
(dp2456
sg83
g2442
sg76
(lp2457
g69
(g70
g71
NtRp2458
(dp2459
g74
(dp2460
g82
I3
ssg83
g2454
sg76
(lp2461
S''
asbasbasbag69
(g85
g71
NtRp2462
(dp2463
g74
(dp2464
sg83
g2358
sg76
(lp2465
g69
(g90
g71
NtRp2466
(dp2467
g74
(dp2468
g94
g95
ssg83
g2462
sg76
(lp2469
g424
asbag69
(g90
g71
NtRp2470
(dp2471
g74
(dp2472
g101
g102
ssg83
g2462
sg76
(lp2473
S':'
asbag69
(g90
g71
NtRp2474
(dp2475
g74
(dp2476
sg83
g2462
sg76
(lp2477
g69
(g70
g71
NtRp2478
(dp2479
g74
(dp2480
g82
I3
ssg83
g2474
sg76
(lp2481
S''
asbasbasbag69
(g85
g71
NtRp2482
(dp2483
g74
(dp2484
sg83
g2358
sg76
(lp2485
g69
(g90
g71
NtRp2486
(dp2487
g74
(dp2488
g94
g95
ssg83
g2482
sg76
(lp2489
g445
asbag69
(g90
g71
NtRp2490
(dp2491
g74
(dp2492
g101
g102
ssg83
g2482
sg76
(lp2493
S':'
asbag69
(g90
g71
NtRp2494
(dp2495
g74
(dp2496
sg83
g2482
sg76
(lp2497
g69
(g70
g71
NtRp2498
(dp2499
g74
(dp2500
g82
I3
ssg83
g2494
sg76
(lp2501
S''
asbasbasbag69
(g85
g71
NtRp2502
(dp2503
g74
(dp2504
sg83
g2358
sg76
(lp2505
g69
(g90
g71
NtRp2506
(dp2507
g74
(dp2508
g94
g95
ssg83
g2502
sg76
(lp2509
g466
asbag69
(g90
g71
NtRp2510
(dp2511
g74
(dp2512
g101
g102
ssg83
g2502
sg76
(lp2513
S':'
asbag69
(g90
g71
NtRp2514
(dp2515
g74
(dp2516
sg83
g2502
sg76
(lp2517
g69
(g70
g71
NtRp2518
(dp2519
g74
(dp2520
g82
I3
ssg83
g2514
sg76
(lp2521
S''
asbasbasbasbasbasbasbasbasbasbasbag69
(g85
g71
NtRp2522
(dp2523
g74
(dp2524
sg83
g79
sg76
(lp2525
g69
(g90
g71
NtRp2526
(dp2527
g74
(dp2528
g94
g95
ssg83
g2522
sg76
(lp2529
S'env'
p2530
asbag69
(g90
g71
NtRp2531
(dp2532
g74
(dp2533
g101
g102
ssg83
g2522
sg76
(lp2534
S':'
asbag69
(g90
g71
NtRp2535
(dp2536
g74
(dp2537
sg83
g2522
sg76
(lp2538
g69
(g70
g71
NtRp2539
(dp2540
g74
(dp2541
g82
I5
ssg83
g2535
sg76
(lp2542
g69
(g78
g71
NtRp2543
(dp2544
g74
(dp2545
g82
I4
ssg83
Nsg76
(lp2546
g69
(g85
g71
NtRp2547
(dp2548
g74
(dp2549
sg83
g2543
sg76
(lp2550
g69
(g90
g71
NtRp2551
(dp2552
g74
(dp2553
g94
g95
ssg83
g2547
sg76
(lp2554
S'app_folders'
p2555
asbag69
(g90
g71
NtRp2556
(dp2557
g74
(dp2558
g101
g102
ssg83
g2547
sg76
(lp2559
S':'
asbag69
(g90
g71
NtRp2560
(dp2561
g74
(dp2562
sg83
g2547
sg76
(lp2563
g69
(g70
g71
NtRp2564
(dp2565
g74
(dp2566
g82
I4
ssg83
g2560
sg76
(lp2567
S"set(['/Applications/web2py/applications/welcome/', '/Applications/web2py/applications/admin/', '/Applications/web2py/applications/PythonCheck/'])"
p2568
asbasbasbag69
(g85
g71
NtRp2569
(dp2570
g74
(dp2571
sg83
g2543
sg76
(lp2572
g69
(g90
g71
NtRp2573
(dp2574
g74
(dp2575
g94
g95
ssg83
g2569
sg76
(lp2576
S'applications_parent'
p2577
asbag69
(g90
g71
NtRp2578
(dp2579
g74
(dp2580
g101
g102
ssg83
g2569
sg76
(lp2581
S':'
asbag69
(g90
g71
NtRp2582
(dp2583
g74
(dp2584
sg83
g2569
sg76
(lp2585
g69
(g70
g71
NtRp2586
(dp2587
g74
(dp2588
g82
I4
ssg83
g2582
sg76
(lp2589
S'/Applications/web2py'
p2590
asbasbasbag69
(g85
g71
NtRp2591
(dp2592
g74
(dp2593
sg83
g2543
sg76
(lp2594
g69
(g90
g71
NtRp2595
(dp2596
g74
(dp2597
g94
g95
ssg83
g2591
sg76
(lp2598
S'cmd_args'
p2599
asbag69
(g90
g71
NtRp2600
(dp2601
g74
(dp2602
g101
g102
ssg83
g2591
sg76
(lp2603
S':'
asbag69
(g90
g71
NtRp2604
(dp2605
g74
(dp2606
sg83
g2591
sg76
(lp2607
g69
(g70
g71
NtRp2608
(dp2609
g74
(dp2610
g82
I4
ssg83
g2604
sg76
(lp2611
g69
(g78
g71
NtRp2612
(dp2613
g74
(dp2614
g82
I3
ssg83
Nsg76
(lp2615
sbasbasbasbag69
(g85
g71
NtRp2616
(dp2617
g74
(dp2618
sg83
g2543
sg76
(lp2619
g69
(g90
g71
NtRp2620
(dp2621
g74
(dp2622
g94
g95
ssg83
g2616
sg76
(lp2623
S'cmd_options'
p2624
asbag69
(g90
g71
NtRp2625
(dp2626
g74
(dp2627
g101
g102
ssg83
g2616
sg76
(lp2628
S':'
asbag69
(g90
g71
NtRp2629
(dp2630
g74
(dp2631
sg83
g2616
sg76
(lp2632
g69
(g70
g71
NtRp2633
(dp2634
g74
(dp2635
g82
I4
ssg83
g2629
sg76
(lp2636
S"<Values at 0x102c38b00: {'verbose': False, 'ip': '127.0.0.1', 'with_scheduler': False, 'ips': ['10.12.35.114'], 'shutdown_timeout': 5, 'taskbar': False, 'port': 8000, 'maxthreads': None, 'softcron': False, 'server_name': 'Jonass-MacBook-Air.local', 'bpython': False, 'nogui': False, 'pid_filename': 'httpserver.pid', 'extcron': False, 'runcron': False, 'run_system_tests': False, 'test': None, 'folder': '/Applications/web2py', 'config': '', 'minthreads': None, 'winservice': '', 'shell': None, 'run': '', 'log_filename': 'httpserver.log', 'debuglevel': 30, 'args': [''], 'socket_timeout': 5, 'ssl_ca_certificate': None, 'scheduler': None, 'profiler_filename': None, 'ssl_private_key': '', 'scheduler_groups': None, 'password': '<ask>', 'request_queue_size': 5, 'ssl_certificate': '', 'cronjob': False, 'numthreads': None, 'quiet': False, 'interfaces': None, 'import_models': False, 'timeout': 10, 'plain': False, 'nobanner': False}>"
p2637
asbasbasbag69
(g85
g71
NtRp2638
(dp2639
g74
(dp2640
sg83
g2543
sg76
(lp2641
g69
(g90
g71
NtRp2642
(dp2643
g74
(dp2644
g94
g95
ssg83
g2638
sg76
(lp2645
S'db_sessions'
p2646
asbag69
(g90
g71
NtRp2647
(dp2648
g74
(dp2649
g101
g102
ssg83
g2638
sg76
(lp2650
S':'
asbag69
(g90
g71
NtRp2651
(dp2652
g74
(dp2653
sg83
g2638
sg76
(lp2654
g69
(g70
g71
NtRp2655
(dp2656
g74
(dp2657
g82
I4
ssg83
g2651
sg76
(lp2658
S'set([])'
p2659
asbasbasbag69
(g85
g71
NtRp2660
(dp2661
g74
(dp2662
sg83
g2543
sg76
(lp2663
g69
(g90
g71
NtRp2664
(dp2665
g74
(dp2666
g94
g95
ssg83
g2660
sg76
(lp2667
S'debugging'
p2668
asbag69
(g90
g71
NtRp2669
(dp2670
g74
(dp2671
g101
g102
ssg83
g2660
sg76
(lp2672
S':'
asbag69
(g90
g71
NtRp2673
(dp2674
g74
(dp2675
sg83
g2660
sg76
(lp2676
g69
(g70
g71
NtRp2677
(dp2678
g74
(dp2679
g82
I4
ssg83
g2673
sg76
(lp2680
g112
asbasbasbag69
(g85
g71
NtRp2681
(dp2682
g74
(dp2683
sg83
g2543
sg76
(lp2684
g69
(g90
g71
NtRp2685
(dp2686
g74
(dp2687
g94
g95
ssg83
g2681
sg76
(lp2688
S'gluon_parent'
p2689
asbag69
(g90
g71
NtRp2690
(dp2691
g74
(dp2692
g101
g102
ssg83
g2681
sg76
(lp2693
S':'
asbag69
(g90
g71
NtRp2694
(dp2695
g74
(dp2696
sg83
g2681
sg76
(lp2697
g69
(g70
g71
NtRp2698
(dp2699
g74
(dp2700
g82
I4
ssg83
g2694
sg76
(lp2701
S'/Applications/web2py'
p2702
asbasbasbag69
(g85
g71
NtRp2703
(dp2704
g74
(dp2705
sg83
g2543
sg76
(lp2706
g69
(g90
g71
NtRp2707
(dp2708
g74
(dp2709
g94
g95
ssg83
g2703
sg76
(lp2710
S'http_accept'
p2711
asbag69
(g90
g71
NtRp2712
(dp2713
g74
(dp2714
g101
g102
ssg83
g2703
sg76
(lp2715
S':'
asbag69
(g90
g71
NtRp2716
(dp2717
g74
(dp2718
sg83
g2703
sg76
(lp2719
g69
(g70
g71
NtRp2720
(dp2721
g74
(dp2722
g82
I4
ssg83
g2716
sg76
(lp2723
S'text/html,application/xhtml+xml,application/xml;q=0.9,*/*;q=0.8'
p2724
asbasbasbag69
(g85
g71
NtRp2725
(dp2726
g74
(dp2727
sg83
g2543
sg76
(lp2728
g69
(g90
g71
NtRp2729
(dp2730
g74
(dp2731
g94
g95
ssg83
g2725
sg76
(lp2732
S'http_accept_charset'
p2733
asbag69
(g90
g71
NtRp2734
(dp2735
g74
(dp2736
g101
g102
ssg83
g2725
sg76
(lp2737
S':'
asbag69
(g90
g71
NtRp2738
(dp2739
g74
(dp2740
sg83
g2725
sg76
(lp2741
g69
(g70
g71
NtRp2742
(dp2743
g74
(dp2744
g82
I4
ssg83
g2738
sg76
(lp2745
S'UTF-8,*;q=0.5'
p2746
asbasbasbag69
(g85
g71
NtRp2747
(dp2748
g74
(dp2749
sg83
g2543
sg76
(lp2750
g69
(g90
g71
NtRp2751
(dp2752
g74
(dp2753
g94
g95
ssg83
g2747
sg76
(lp2754
S'http_accept_encoding'
p2755
asbag69
(g90
g71
NtRp2756
(dp2757
g74
(dp2758
g101
g102
ssg83
g2747
sg76
(lp2759
S':'
asbag69
(g90
g71
NtRp2760
(dp2761
g74
(dp2762
sg83
g2747
sg76
(lp2763
g69
(g70
g71
NtRp2764
(dp2765
g74
(dp2766
g82
I4
ssg83
g2760
sg76
(lp2767
S'gzip,deflate,sdch'
p2768
asbasbasbag69
(g85
g71
NtRp2769
(dp2770
g74
(dp2771
sg83
g2543
sg76
(lp2772
g69
(g90
g71
NtRp2773
(dp2774
g74
(dp2775
g94
g95
ssg83
g2769
sg76
(lp2776
S'http_accept_language'
p2777
asbag69
(g90
g71
NtRp2778
(dp2779
g74
(dp2780
g101
g102
ssg83
g2769
sg76
(lp2781
S':'
asbag69
(g90
g71
NtRp2782
(dp2783
g74
(dp2784
sg83
g2769
sg76
(lp2785
g69
(g70
g71
NtRp2786
(dp2787
g74
(dp2788
g82
I4
ssg83
g2782
sg76
(lp2789
S'en-US,en;q=0.8'
p2790
asbasbasbag69
(g85
g71
NtRp2791
(dp2792
g74
(dp2793
sg83
g2543
sg76
(lp2794
g69
(g90
g71
NtRp2795
(dp2796
g74
(dp2797
g94
g95
ssg83
g2791
sg76
(lp2798
S'http_cache_control'
p2799
asbag69
(g90
g71
NtRp2800
(dp2801
g74
(dp2802
g101
g102
ssg83
g2791
sg76
(lp2803
S':'
asbag69
(g90
g71
NtRp2804
(dp2805
g74
(dp2806
sg83
g2791
sg76
(lp2807
g69
(g70
g71
NtRp2808
(dp2809
g74
(dp2810
g82
I4
ssg83
g2804
sg76
(lp2811
S'max-age=0'
p2812
asbasbasbag69
(g85
g71
NtRp2813
(dp2814
g74
(dp2815
sg83
g2543
sg76
(lp2816
g69
(g90
g71
NtRp2817
(dp2818
g74
(dp2819
g94
g95
ssg83
g2813
sg76
(lp2820
S'http_connection'
p2821
asbag69
(g90
g71
NtRp2822
(dp2823
g74
(dp2824
g101
g102
ssg83
g2813
sg76
(lp2825
S':'
asbag69
(g90
g71
NtRp2826
(dp2827
g74
(dp2828
sg83
g2813
sg76
(lp2829
g69
(g70
g71
NtRp2830
(dp2831
g74
(dp2832
g82
I4
ssg83
g2826
sg76
(lp2833
S'keep-alive'
p2834
asbasbasbag69
(g85
g71
NtRp2835
(dp2836
g74
(dp2837
sg83
g2543
sg76
(lp2838
g69
(g90
g71
NtRp2839
(dp2840
g74
(dp2841
g94
g95
ssg83
g2835
sg76
(lp2842
S'http_cookie'
p2843
asbag69
(g90
g71
NtRp2844
(dp2845
g74
(dp2846
g101
g102
ssg83
g2835
sg76
(lp2847
S':'
asbag69
(g90
g71
NtRp2848
(dp2849
g74
(dp2850
sg83
g2835
sg76
(lp2851
g69
(g70
g71
NtRp2852
(dp2853
g74
(dp2854
g82
I4
ssg83
g2848
sg76
(lp2855
S'9d4bb4a09f511681369671a08beff228=lfmfp23h9icoft9v0gmjkn4p21; 91c470c014285e4b6f93215ecdef7f1b=68a8qmlb4o89cn0pb7mrnmok67; 82194aeeb794e18b185dda10e0817672=404e5a2c3debac3d9432bd6d60d7a0f0; jpanesliders_panel-sliders=0; jpanesliders_template-sliders-4=0; PHPSESSID=amfcki4mgr4gk9c5l6n3pftto7; SESSbe917cabe6ac66ef61a4a72ddc2195f5=yKTtN8-JhU7qkHsgT4I4RbwlAhXil80hTU2UkyxhDrI; SESS35d95846a91240af8cb2705225138145=FLgcU_zvztdSAO7Kb2kCaW9Ori5XuAsM9hk2pJO8nfo; has_js=1; session_id_welcome=127.0.0.1-35921092-8c7a-4d99-a981-90cae28a3b62; session_id_pythoncheck=127.0.0.1-abcdf534-80cd-4b45-82bb-3b11e39875cc; session_id_admin=127.0.0.1-78cfdcb4-d1af-4846-87fb-31990a17b899'
p2856
asbasbasbag69
(g85
g71
NtRp2857
(dp2858
g74
(dp2859
sg83
g2543
sg76
(lp2860
g69
(g90
g71
NtRp2861
(dp2862
g74
(dp2863
g94
g95
ssg83
g2857
sg76
(lp2864
S'http_dnt'
p2865
asbag69
(g90
g71
NtRp2866
(dp2867
g74
(dp2868
g101
g102
ssg83
g2857
sg76
(lp2869
S':'
asbag69
(g90
g71
NtRp2870
(dp2871
g74
(dp2872
sg83
g2857
sg76
(lp2873
g69
(g70
g71
NtRp2874
(dp2875
g74
(dp2876
g82
I4
ssg83
g2870
sg76
(lp2877
S'1'
asbasbasbag69
(g85
g71
NtRp2878
(dp2879
g74
(dp2880
sg83
g2543
sg76
(lp2881
g69
(g90
g71
NtRp2882
(dp2883
g74
(dp2884
g94
g95
ssg83
g2878
sg76
(lp2885
S'http_host'
p2886
asbag69
(g90
g71
NtRp2887
(dp2888
g74
(dp2889
g101
g102
ssg83
g2878
sg76
(lp2890
S':'
asbag69
(g90
g71
NtRp2891
(dp2892
g74
(dp2893
sg83
g2878
sg76
(lp2894
g69
(g70
g71
NtRp2895
(dp2896
g74
(dp2897
g82
I4
ssg83
g2891
sg76
(lp2898
S'localhost:8000'
p2899
asbasbasbag69
(g85
g71
NtRp2900
(dp2901
g74
(dp2902
sg83
g2543
sg76
(lp2903
g69
(g90
g71
NtRp2904
(dp2905
g74
(dp2906
g94
g95
ssg83
g2900
sg76
(lp2907
S'http_user_agent'
p2908
asbag69
(g90
g71
NtRp2909
(dp2910
g74
(dp2911
g101
g102
ssg83
g2900
sg76
(lp2912
S':'
asbag69
(g90
g71
NtRp2913
(dp2914
g74
(dp2915
sg83
g2900
sg76
(lp2916
g69
(g70
g71
NtRp2917
(dp2918
g74
(dp2919
g82
I4
ssg83
g2913
sg76
(lp2920
S'Mozilla/5.0 (Macintosh; Intel Mac OS X 10_8_2) AppleWebKit/537.17 (KHTML, like Gecko) Chrome/24.0.1312.14 Safari/537.17'
p2921
asbasbasbag69
(g85
g71
NtRp2922
(dp2923
g74
(dp2924
sg83
g2543
sg76
(lp2925
g69
(g90
g71
NtRp2926
(dp2927
g74
(dp2928
g94
g95
ssg83
g2922
sg76
(lp2929
S'is_jython'
p2930
asbag69
(g90
g71
NtRp2931
(dp2932
g74
(dp2933
g101
g102
ssg83
g2922
sg76
(lp2934
S':'
asbag69
(g90
g71
NtRp2935
(dp2936
g74
(dp2937
sg83
g2922
sg76
(lp2938
g69
(g70
g71
NtRp2939
(dp2940
g74
(dp2941
g82
I4
ssg83
g2935
sg76
(lp2942
g112
asbasbasbag69
(g85
g71
NtRp2943
(dp2944
g74
(dp2945
sg83
g2543
sg76
(lp2946
g69
(g90
g71
NtRp2947
(dp2948
g74
(dp2949
g94
g95
ssg83
g2943
sg76
(lp2950
S'is_pypy'
p2951
asbag69
(g90
g71
NtRp2952
(dp2953
g74
(dp2954
g101
g102
ssg83
g2943
sg76
(lp2955
S':'
asbag69
(g90
g71
NtRp2956
(dp2957
g74
(dp2958
sg83
g2943
sg76
(lp2959
g69
(g70
g71
NtRp2960
(dp2961
g74
(dp2962
g82
I4
ssg83
g2956
sg76
(lp2963
g112
asbasbasbag69
(g85
g71
NtRp2964
(dp2965
g74
(dp2966
sg83
g2543
sg76
(lp2967
g69
(g90
g71
NtRp2968
(dp2969
g74
(dp2970
g94
g95
ssg83
g2964
sg76
(lp2971
S'local_hosts'
p2972
asbag69
(g90
g71
NtRp2973
(dp2974
g74
(dp2975
g101
g102
ssg83
g2964
sg76
(lp2976
S':'
asbag69
(g90
g71
NtRp2977
(dp2978
g74
(dp2979
sg83
g2964
sg76
(lp2980
g69
(g70
g71
NtRp2981
(dp2982
g74
(dp2983
g82
I4
ssg83
g2977
sg76
(lp2984
g69
(g78
g71
NtRp2985
(dp2986
g74
(dp2987
g82
I3
ssg83
Nsg76
(lp2988
g69
(g85
g71
NtRp2989
(dp2990
g74
(dp2991
sg83
g2985
sg76
(lp2992
g69
(g90
g71
NtRp2993
(dp2994
g74
(dp2995
sg83
g2989
sg76
(lp2996
g69
(g70
g71
NtRp2997
(dp2998
g74
(dp2999
g82
I3
ssg83
g2993
sg76
(lp3000
S'127.0.0.1'
p3001
asbasbasbag69
(g85
g71
NtRp3002
(dp3003
g74
(dp3004
sg83
g2985
sg76
(lp3005
g69
(g90
g71
NtRp3006
(dp3007
g74
(dp3008
sg83
g3002
sg76
(lp3009
g69
(g70
g71
NtRp3010
(dp3011
g74
(dp3012
g82
I3
ssg83
g3006
sg76
(lp3013
S'::ffff:127.0.0.1'
p3014
asbasbasbag69
(g85
g71
NtRp3015
(dp3016
g74
(dp3017
sg83
g2985
sg76
(lp3018
g69
(g90
g71
NtRp3019
(dp3020
g74
(dp3021
sg83
g3015
sg76
(lp3022
g69
(g70
g71
NtRp3023
(dp3024
g74
(dp3025
g82
I3
ssg83
g3019
sg76
(lp3026
S'Jonass-MacBook-Air.local'
p3027
asbasbasbag69
(g85
g71
NtRp3028
(dp3029
g74
(dp3030
sg83
g2985
sg76
(lp3031
g69
(g90
g71
NtRp3032
(dp3033
g74
(dp3034
sg83
g3028
sg76
(lp3035
g69
(g70
g71
NtRp3036
(dp3037
g74
(dp3038
g82
I3
ssg83
g3032
sg76
(lp3039
S'Jonass-MacBook-Air.local'
p3040
asbasbasbag69
(g85
g71
NtRp3041
(dp3042
g74
(dp3043
sg83
g2985
sg76
(lp3044
g69
(g90
g71
NtRp3045
(dp3046
g74
(dp3047
sg83
g3041
sg76
(lp3048
g69
(g70
g71
NtRp3049
(dp3050
g74
(dp3051
g82
I3
ssg83
g3045
sg76
(lp3052
S'10.12.35.114'
p3053
asbasbasbasbasbasbasbag69
(g85
g71
NtRp3054
(dp3055
g74
(dp3056
sg83
g2543
sg76
(lp3057
g69
(g90
g71
NtRp3058
(dp3059
g74
(dp3060
g94
g95
ssg83
g3054
sg76
(lp3061
S'path_info'
p3062
asbag69
(g90
g71
NtRp3063
(dp3064
g74
(dp3065
g101
g102
ssg83
g3054
sg76
(lp3066
S':'
asbag69
(g90
g71
NtRp3067
(dp3068
g74
(dp3069
sg83
g3054
sg76
(lp3070
g69
(g70
g71
NtRp3071
(dp3072
g74
(dp3073
g82
I4
ssg83
g3067
sg76
(lp3074
S'/PythonCheck/appadmin/select/db'
p3075
asbasbasbag69
(g85
g71
NtRp3076
(dp3077
g74
(dp3078
sg83
g2543
sg76
(lp3079
g69
(g90
g71
NtRp3080
(dp3081
g74
(dp3082
g94
g95
ssg83
g3076
sg76
(lp3083
S'query_string'
p3084
asbag69
(g90
g71
NtRp3085
(dp3086
g74
(dp3087
g101
g102
ssg83
g3076
sg76
(lp3088
S':'
asbag69
(g90
g71
NtRp3089
(dp3090
g74
(dp3091
sg83
g3076
sg76
(lp3092
g69
(g70
g71
NtRp3093
(dp3094
g74
(dp3095
g82
I4
ssg83
g3089
sg76
(lp3096
S''
asbasbasbag69
(g85
g71
NtRp3097
(dp3098
g74
(dp3099
sg83
g2543
sg76
(lp3100
g69
(g90
g71
NtRp3101
(dp3102
g74
(dp3103
g94
g95
ssg83
g3097
sg76
(lp3104
S'remote_addr'
p3105
asbag69
(g90
g71
NtRp3106
(dp3107
g74
(dp3108
g101
g102
ssg83
g3097
sg76
(lp3109
S':'
asbag69
(g90
g71
NtRp3110
(dp3111
g74
(dp3112
sg83
g3097
sg76
(lp3113
g69
(g70
g71
NtRp3114
(dp3115
g74
(dp3116
g82
I4
ssg83
g3110
sg76
(lp3117
g237
asbasbasbag69
(g85
g71
NtRp3118
(dp3119
g74
(dp3120
sg83
g2543
sg76
(lp3121
g69
(g90
g71
NtRp3122
(dp3123
g74
(dp3124
g94
g95
ssg83
g3118
sg76
(lp3125
S'remote_port'
p3126
asbag69
(g90
g71
NtRp3127
(dp3128
g74
(dp3129
g101
g102
ssg83
g3118
sg76
(lp3130
S':'
asbag69
(g90
g71
NtRp3131
(dp3132
g74
(dp3133
sg83
g3118
sg76
(lp3134
g69
(g70
g71
NtRp3135
(dp3136
g74
(dp3137
g82
I4
ssg83
g3131
sg76
(lp3138
S'51031'
p3139
asbasbasbag69
(g85
g71
NtRp3140
(dp3141
g74
(dp3142
sg83
g2543
sg76
(lp3143
g69
(g90
g71
NtRp3144
(dp3145
g74
(dp3146
g94
g95
ssg83
g3140
sg76
(lp3147
S'request_method'
p3148
asbag69
(g90
g71
NtRp3149
(dp3150
g74
(dp3151
g101
g102
ssg83
g3140
sg76
(lp3152
S':'
asbag69
(g90
g71
NtRp3153
(dp3154
g74
(dp3155
sg83
g3140
sg76
(lp3156
g69
(g70
g71
NtRp3157
(dp3158
g74
(dp3159
g82
I4
ssg83
g3153
sg76
(lp3160
S'GET'
p3161
asbasbasbag69
(g85
g71
NtRp3162
(dp3163
g74
(dp3164
sg83
g2543
sg76
(lp3165
g69
(g90
g71
NtRp3166
(dp3167
g74
(dp3168
g94
g95
ssg83
g3162
sg76
(lp3169
S'request_uri'
p3170
asbag69
(g90
g71
NtRp3171
(dp3172
g74
(dp3173
g101
g102
ssg83
g3162
sg76
(lp3174
S':'
asbag69
(g90
g71
NtRp3175
(dp3176
g74
(dp3177
sg83
g3162
sg76
(lp3178
g69
(g70
g71
NtRp3179
(dp3180
g74
(dp3181
g82
I4
ssg83
g3175
sg76
(lp3182
g3075
asbasbasbag69
(g85
g71
NtRp3183
(dp3184
g74
(dp3185
sg83
g2543
sg76
(lp3186
g69
(g90
g71
NtRp3187
(dp3188
g74
(dp3189
g94
g95
ssg83
g3183
sg76
(lp3190
S'script_name'
p3191
asbag69
(g90
g71
NtRp3192
(dp3193
g74
(dp3194
g101
g102
ssg83
g3183
sg76
(lp3195
S':'
asbag69
(g90
g71
NtRp3196
(dp3197
g74
(dp3198
sg83
g3183
sg76
(lp3199
g69
(g70
g71
NtRp3200
(dp3201
g74
(dp3202
g82
I4
ssg83
g3196
sg76
(lp3203
S''
asbasbasbag69
(g85
g71
NtRp3204
(dp3205
g74
(dp3206
sg83
g2543
sg76
(lp3207
g69
(g90
g71
NtRp3208
(dp3209
g74
(dp3210
g94
g95
ssg83
g3204
sg76
(lp3211
S'server_name'
p3212
asbag69
(g90
g71
NtRp3213
(dp3214
g74
(dp3215
g101
g102
ssg83
g3204
sg76
(lp3216
S':'
asbag69
(g90
g71
NtRp3217
(dp3218
g74
(dp3219
sg83
g3204
sg76
(lp3220
g69
(g70
g71
NtRp3221
(dp3222
g74
(dp3223
g82
I4
ssg83
g3217
sg76
(lp3224
g3040
asbasbasbag69
(g85
g71
NtRp3225
(dp3226
g74
(dp3227
sg83
g2543
sg76
(lp3228
g69
(g90
g71
NtRp3229
(dp3230
g74
(dp3231
g94
g95
ssg83
g3225
sg76
(lp3232
S'server_port'
p3233
asbag69
(g90
g71
NtRp3234
(dp3235
g74
(dp3236
g101
g102
ssg83
g3225
sg76
(lp3237
S':'
asbag69
(g90
g71
NtRp3238
(dp3239
g74
(dp3240
sg83
g3225
sg76
(lp3241
g69
(g70
g71
NtRp3242
(dp3243
g74
(dp3244
g82
I4
ssg83
g3238
sg76
(lp3245
S'8000'
p3246
asbasbasbag69
(g85
g71
NtRp3247
(dp3248
g74
(dp3249
sg83
g2543
sg76
(lp3250
g69
(g90
g71
NtRp3251
(dp3252
g74
(dp3253
g94
g95
ssg83
g3247
sg76
(lp3254
S'server_protocol'
p3255
asbag69
(g90
g71
NtRp3256
(dp3257
g74
(dp3258
g101
g102
ssg83
g3247
sg76
(lp3259
S':'
asbag69
(g90
g71
NtRp3260
(dp3261
g74
(dp3262
sg83
g3247
sg76
(lp3263
g69
(g70
g71
NtRp3264
(dp3265
g74
(dp3266
g82
I4
ssg83
g3260
sg76
(lp3267
S'HTTP/1.1'
p3268
asbasbasbag69
(g85
g71
NtRp3269
(dp3270
g74
(dp3271
sg83
g2543
sg76
(lp3272
g69
(g90
g71
NtRp3273
(dp3274
g74
(dp3275
g94
g95
ssg83
g3269
sg76
(lp3276
S'server_software'
p3277
asbag69
(g90
g71
NtRp3278
(dp3279
g74
(dp3280
g101
g102
ssg83
g3269
sg76
(lp3281
S':'
asbag69
(g90
g71
NtRp3282
(dp3283
g74
(dp3284
sg83
g3269
sg76
(lp3285
g69
(g70
g71
NtRp3286
(dp3287
g74
(dp3288
g82
I4
ssg83
g3282
sg76
(lp3289
S'Rocket 1.2.5'
p3290
asbasbasbag69
(g85
g71
NtRp3291
(dp3292
g74
(dp3293
sg83
g2543
sg76
(lp3294
g69
(g90
g71
NtRp3295
(dp3296
g74
(dp3297
g94
g95
ssg83
g3291
sg76
(lp3298
S'web2py_path'
p3299
asbag69
(g90
g71
NtRp3300
(dp3301
g74
(dp3302
g101
g102
ssg83
g3291
sg76
(lp3303
S':'
asbag69
(g90
g71
NtRp3304
(dp3305
g74
(dp3306
sg83
g3291
sg76
(lp3307
g69
(g70
g71
NtRp3308
(dp3309
g74
(dp3310
g82
I4
ssg83
g3304
sg76
(lp3311
g2590
asbasbasbag69
(g85
g71
NtRp3312
(dp3313
g74
(dp3314
sg83
g2543
sg76
(lp3315
g69
(g90
g71
NtRp3316
(dp3317
g74
(dp3318
g94
g95
ssg83
g3312
sg76
(lp3319
S'web2py_version'
p3320
asbag69
(g90
g71
NtRp3321
(dp3322
g74
(dp3323
g101
g102
ssg83
g3312
sg76
(lp3324
S':'
asbag69
(g90
g71
NtRp3325
(dp3326
g74
(dp3327
sg83
g3312
sg76
(lp3328
g69
(g70
g71
NtRp3329
(dp3330
g74
(dp3331
g82
I4
ssg83
g3325
sg76
(lp3332
g69
(g78
g71
NtRp3333
(dp3334
g74
(dp3335
g82
I3
ssg83
Nsg76
(lp3336
g69
(g85
g71
NtRp3337
(dp3338
g74
(dp3339
sg83
g3333
sg76
(lp3340
g69
(g90
g71
NtRp3341
(dp3342
g74
(dp3343
sg83
g3337
sg76
(lp3344
g69
(g70
g71
NtRp3345
(dp3346
g74
(dp3347
g82
I3
ssg83
g3341
sg76
(lp3348
S'2'
asbasbasbag69
(g85
g71
NtRp3349
(dp3350
g74
(dp3351
sg83
g3333
sg76
(lp3352
g69
(g90
g71
NtRp3353
(dp3354
g74
(dp3355
sg83
g3349
sg76
(lp3356
g69
(g70
g71
NtRp3357
(dp3358
g74
(dp3359
g82
I3
ssg83
g3353
sg76
(lp3360
S'2'
asbasbasbag69
(g85
g71
NtRp3361
(dp3362
g74
(dp3363
sg83
g3333
sg76
(lp3364
g69
(g90
g71
NtRp3365
(dp3366
g74
(dp3367
sg83
g3361
sg76
(lp3368
g69
(g70
g71
NtRp3369
(dp3370
g74
(dp3371
g82
I3
ssg83
g3365
sg76
(lp3372
S'1'
asbasbasbag69
(g85
g71
NtRp3373
(dp3374
g74
(dp3375
sg83
g3333
sg76
(lp3376
g69
(g90
g71
NtRp3377
(dp3378
g74
(dp3379
sg83
g3373
sg76
(lp3380
g69
(g70
g71
NtRp3381
(dp3382
g74
(dp3383
g82
I3
ssg83
g3377
sg76
(lp3384
S'datetime.datetime(2012, 11, 9, 14, 11, 30)'
p3385
asbasbasbag69
(g85
g71
NtRp3386
(dp3387
g74
(dp3388
sg83
g3333
sg76
(lp3389
g69
(g90
g71
NtRp3390
(dp3391
g74
(dp3392
sg83
g3386
sg76
(lp3393
g69
(g70
g71
NtRp3394
(dp3395
g74
(dp3396
g82
I3
ssg83
g3390
sg76
(lp3397
S'stable'
p3398
asbasbasbasbasbasbasbag69
(g85
g71
NtRp3399
(dp3400
g74
(dp3401
sg83
g2543
sg76
(lp3402
g69
(g90
g71
NtRp3403
(dp3404
g74
(dp3405
g94
g95
ssg83
g3399
sg76
(lp3406
S'wsgi_errors'
p3407
asbag69
(g90
g71
NtRp3408
(dp3409
g74
(dp3410
g101
g102
ssg83
g3399
sg76
(lp3411
S':'
asbag69
(g90
g71
NtRp3412
(dp3413
g74
(dp3414
sg83
g3399
sg76
(lp3415
g69
(g70
g71
NtRp3416
(dp3417
g74
(dp3418
g82
I4
ssg83
g3412
sg76
(lp3419
S"<open file '<stderr>', mode 'w' at 0x101e79270>"
p3420
asbasbasbag69
(g85
g71
NtRp3421
(dp3422
g74
(dp3423
sg83
g2543
sg76
(lp3424
g69
(g90
g71
NtRp3425
(dp3426
g74
(dp3427
g94
g95
ssg83
g3421
sg76
(lp3428
S'wsgi_file_wrapper'
p3429
asbag69
(g90
g71
NtRp3430
(dp3431
g74
(dp3432
g101
g102
ssg83
g3421
sg76
(lp3433
S':'
asbag69
(g90
g71
NtRp3434
(dp3435
g74
(dp3436
sg83
g3421
sg76
(lp3437
g69
(g70
g71
NtRp3438
(dp3439
g74
(dp3440
g82
I4
ssg83
g3434
sg76
(lp3441
S'<class wsgiref.util.FileWrapper at 0x102bdb8d8>'
p3442
asbasbasbag69
(g85
g71
NtRp3443
(dp3444
g74
(dp3445
sg83
g2543
sg76
(lp3446
g69
(g90
g71
NtRp3447
(dp3448
g74
(dp3449
g94
g95
ssg83
g3443
sg76
(lp3450
S'wsgi_input'
p3451
asbag69
(g90
g71
NtRp3452
(dp3453
g74
(dp3454
g101
g102
ssg83
g3443
sg76
(lp3455
S':'
asbag69
(g90
g71
NtRp3456
(dp3457
g74
(dp3458
sg83
g3443
sg76
(lp3459
g69
(g70
g71
NtRp3460
(dp3461
g74
(dp3462
g82
I4
ssg83
g3456
sg76
(lp3463
S'<socket._fileobject object at 0x1071de250>'
p3464
asbasbasbag69
(g85
g71
NtRp3465
(dp3466
g74
(dp3467
sg83
g2543
sg76
(lp3468
g69
(g90
g71
NtRp3469
(dp3470
g74
(dp3471
g94
g95
ssg83
g3465
sg76
(lp3472
S'wsgi_multiprocess'
p3473
asbag69
(g90
g71
NtRp3474
(dp3475
g74
(dp3476
g101
g102
ssg83
g3465
sg76
(lp3477
S':'
asbag69
(g90
g71
NtRp3478
(dp3479
g74
(dp3480
sg83
g3465
sg76
(lp3481
g69
(g70
g71
NtRp3482
(dp3483
g74
(dp3484
g82
I4
ssg83
g3478
sg76
(lp3485
g112
asbasbasbag69
(g85
g71
NtRp3486
(dp3487
g74
(dp3488
sg83
g2543
sg76
(lp3489
g69
(g90
g71
NtRp3490
(dp3491
g74
(dp3492
g94
g95
ssg83
g3486
sg76
(lp3493
S'wsgi_multithread'
p3494
asbag69
(g90
g71
NtRp3495
(dp3496
g74
(dp3497
g101
g102
ssg83
g3486
sg76
(lp3498
S':'
asbag69
(g90
g71
NtRp3499
(dp3500
g74
(dp3501
sg83
g3486
sg76
(lp3502
g69
(g70
g71
NtRp3503
(dp3504
g74
(dp3505
g82
I4
ssg83
g3499
sg76
(lp3506
S'True'
p3507
asbasbasbag69
(g85
g71
NtRp3508
(dp3509
g74
(dp3510
sg83
g2543
sg76
(lp3511
g69
(g90
g71
NtRp3512
(dp3513
g74
(dp3514
g94
g95
ssg83
g3508
sg76
(lp3515
S'wsgi_run_once'
p3516
asbag69
(g90
g71
NtRp3517
(dp3518
g74
(dp3519
g101
g102
ssg83
g3508
sg76
(lp3520
S':'
asbag69
(g90
g71
NtRp3521
(dp3522
g74
(dp3523
sg83
g3508
sg76
(lp3524
g69
(g70
g71
NtRp3525
(dp3526
g74
(dp3527
g82
I4
ssg83
g3521
sg76
(lp3528
g112
asbasbasbag69
(g85
g71
NtRp3529
(dp3530
g74
(dp3531
sg83
g2543
sg76
(lp3532
g69
(g90
g71
NtRp3533
(dp3534
g74
(dp3535
g94
g95
ssg83
g3529
sg76
(lp3536
S'wsgi_url_scheme'
p3537
asbag69
(g90
g71
NtRp3538
(dp3539
g74
(dp3540
g101
g102
ssg83
g3529
sg76
(lp3541
S':'
asbag69
(g90
g71
NtRp3542
(dp3543
g74
(dp3544
sg83
g3529
sg76
(lp3545
g69
(g70
g71
NtRp3546
(dp3547
g74
(dp3548
g82
I4
ssg83
g3542
sg76
(lp3549
S'http'
p3550
asbasbasbag69
(g85
g71
NtRp3551
(dp3552
g74
(dp3553
sg83
g2543
sg76
(lp3554
g69
(g90
g71
NtRp3555
(dp3556
g74
(dp3557
g94
g95
ssg83
g3551
sg76
(lp3558
S'wsgi_version'
p3559
asbag69
(g90
g71
NtRp3560
(dp3561
g74
(dp3562
g101
g102
ssg83
g3551
sg76
(lp3563
S':'
asbag69
(g90
g71
NtRp3564
(dp3565
g74
(dp3566
sg83
g3551
sg76
(lp3567
g69
(g70
g71
NtRp3568
(dp3569
g74
(dp3570
g82
I4
ssg83
g3564
sg76
(lp3571
g69
(g78
g71
NtRp3572
(dp3573
g74
(dp3574
g82
I3
ssg83
Nsg76
(lp3575
g69
(g85
g71
NtRp3576
(dp3577
g74
(dp3578
sg83
g3572
sg76
(lp3579
g69
(g90
g71
NtRp3580
(dp3581
g74
(dp3582
sg83
g3576
sg76
(lp3583
g69
(g70
g71
NtRp3584
(dp3585
g74
(dp3586
g82
I3
ssg83
g3580
sg76
(lp3587
S'1'
asbasbasbag69
(g85
g71
NtRp3588
(dp3589
g74
(dp3590
sg83
g3572
sg76
(lp3591
g69
(g90
g71
NtRp3592
(dp3593
g74
(dp3594
sg83
g3588
sg76
(lp3595
g69
(g70
g71
NtRp3596
(dp3597
g74
(dp3598
g82
I3
ssg83
g3592
sg76
(lp3599
S'0'
asbasbasbasbasbasbasbasbasbasbasbag69
(g85
g71
NtRp3600
(dp3601
g74
(dp3602
sg83
g79
sg76
(lp3603
g69
(g90
g71
NtRp3604
(dp3605
g74
(dp3606
g94
g95
ssg83
g3600
sg76
(lp3607
S'extension'
p3608
asbag69
(g90
g71
NtRp3609
(dp3610
g74
(dp3611
g101
g102
ssg83
g3600
sg76
(lp3612
S':'
asbag69
(g90
g71
NtRp3613
(dp3614
g74
(dp3615
sg83
g3600
sg76
(lp3616
g69
(g70
g71
NtRp3617
(dp3618
g74
(dp3619
g82
I5
ssg83
g3613
sg76
(lp3620
S'html'
p3621
asbasbasbag69
(g85
g71
NtRp3622
(dp3623
g74
(dp3624
sg83
g79
sg76
(lp3625
g69
(g90
g71
NtRp3626
(dp3627
g74
(dp3628
g94
g95
ssg83
g3622
sg76
(lp3629
S'folder'
p3630
asbag69
(g90
g71
NtRp3631
(dp3632
g74
(dp3633
g101
g102
ssg83
g3622
sg76
(lp3634
S':'
asbag69
(g90
g71
NtRp3635
(dp3636
g74
(dp3637
sg83
g3622
sg76
(lp3638
g69
(g70
g71
NtRp3639
(dp3640
g74
(dp3641
g82
I5
ssg83
g3635
sg76
(lp3642
S'/Applications/web2py/applications/PythonCheck/'
p3643
asbasbasbag69
(g85
g71
NtRp3644
(dp3645
g74
(dp3646
sg83
g79
sg76
(lp3647
g69
(g90
g71
NtRp3648
(dp3649
g74
(dp3650
g94
g95
ssg83
g3644
sg76
(lp3651
S'function'
p3652
asbag69
(g90
g71
NtRp3653
(dp3654
g74
(dp3655
g101
g102
ssg83
g3644
sg76
(lp3656
S':'
asbag69
(g90
g71
NtRp3657
(dp3658
g74
(dp3659
sg83
g3644
sg76
(lp3660
g69
(g70
g71
NtRp3661
(dp3662
g74
(dp3663
g82
I5
ssg83
g3657
sg76
(lp3664
S'select'
p3665
asbasbasbag69
(g85
g71
NtRp3666
(dp3667
g74
(dp3668
sg83
g79
sg76
(lp3669
g69
(g90
g71
NtRp3670
(dp3671
g74
(dp3672
g94
g95
ssg83
g3666
sg76
(lp3673
S'get_vars'
p3674
asbag69
(g90
g71
NtRp3675
(dp3676
g74
(dp3677
g101
g102
ssg83
g3666
sg76
(lp3678
S':'
asbag69
(g90
g71
NtRp3679
(dp3680
g74
(dp3681
sg83
g3666
sg76
(lp3682
g69
(g70
g71
NtRp3683
(dp3684
g74
(dp3685
g82
I5
ssg83
g3679
sg76
(lp3686
g69
(g78
g71
NtRp3687
(dp3688
g74
(dp3689
g82
I4
ssg83
Nsg76
(lp3690
sbasbasbasbag69
(g85
g71
NtRp3691
(dp3692
g74
(dp3693
sg83
g79
sg76
(lp3694
g69
(g90
g71
NtRp3695
(dp3696
g74
(dp3697
g94
g95
ssg83
g3691
sg76
(lp3698
S'global_settings'
p3699
asbag69
(g90
g71
NtRp3700
(dp3701
g74
(dp3702
g101
g102
ssg83
g3691
sg76
(lp3703
S':'
asbag69
(g90
g71
NtRp3704
(dp3705
g74
(dp3706
sg83
g3691
sg76
(lp3707
g69
(g70
g71
NtRp3708
(dp3709
g74
(dp3710
g82
I5
ssg83
g3704
sg76
(lp3711
g69
(g78
g71
NtRp3712
(dp3713
g74
(dp3714
g82
I4
ssg83
Nsg76
(lp3715
g69
(g85
g71
NtRp3716
(dp3717
g74
(dp3718
sg83
g3712
sg76
(lp3719
g69
(g90
g71
NtRp3720
(dp3721
g74
(dp3722
g94
g95
ssg83
g3716
sg76
(lp3723
g2555
asbag69
(g90
g71
NtRp3724
(dp3725
g74
(dp3726
g101
g102
ssg83
g3716
sg76
(lp3727
S':'
asbag69
(g90
g71
NtRp3728
(dp3729
g74
(dp3730
sg83
g3716
sg76
(lp3731
g69
(g70
g71
NtRp3732
(dp3733
g74
(dp3734
g82
I4
ssg83
g3728
sg76
(lp3735
S"set(['/Applications/web2py/applications/welcome/', '/Applications/web2py/applications/admin/', '/Applications/web2py/applications/PythonCheck/'])"
p3736
asbasbasbag69
(g85
g71
NtRp3737
(dp3738
g74
(dp3739
sg83
g3712
sg76
(lp3740
g69
(g90
g71
NtRp3741
(dp3742
g74
(dp3743
g94
g95
ssg83
g3737
sg76
(lp3744
g2577
asbag69
(g90
g71
NtRp3745
(dp3746
g74
(dp3747
g101
g102
ssg83
g3737
sg76
(lp3748
S':'
asbag69
(g90
g71
NtRp3749
(dp3750
g74
(dp3751
sg83
g3737
sg76
(lp3752
g69
(g70
g71
NtRp3753
(dp3754
g74
(dp3755
g82
I4
ssg83
g3749
sg76
(lp3756
g2590
asbasbasbag69
(g85
g71
NtRp3757
(dp3758
g74
(dp3759
sg83
g3712
sg76
(lp3760
g69
(g90
g71
NtRp3761
(dp3762
g74
(dp3763
g94
g95
ssg83
g3757
sg76
(lp3764
g2599
asbag69
(g90
g71
NtRp3765
(dp3766
g74
(dp3767
g101
g102
ssg83
g3757
sg76
(lp3768
S':'
asbag69
(g90
g71
NtRp3769
(dp3770
g74
(dp3771
sg83
g3757
sg76
(lp3772
g69
(g70
g71
NtRp3773
(dp3774
g74
(dp3775
g82
I4
ssg83
g3769
sg76
(lp3776
g69
(g78
g71
NtRp3777
(dp3778
g74
(dp3779
g82
I3
ssg83
Nsg76
(lp3780
sbasbasbasbag69
(g85
g71
NtRp3781
(dp3782
g74
(dp3783
sg83
g3712
sg76
(lp3784
g69
(g90
g71
NtRp3785
(dp3786
g74
(dp3787
g94
g95
ssg83
g3781
sg76
(lp3788
g2624
asbag69
(g90
g71
NtRp3789
(dp3790
g74
(dp3791
g101
g102
ssg83
g3781
sg76
(lp3792
S':'
asbag69
(g90
g71
NtRp3793
(dp3794
g74
(dp3795
sg83
g3781
sg76
(lp3796
g69
(g70
g71
NtRp3797
(dp3798
g74
(dp3799
g82
I4
ssg83
g3793
sg76
(lp3800
S"<Values at 0x102c38b00: {'verbose': False, 'ip': '127.0.0.1', 'with_scheduler': False, 'ips': ['10.12.35.114'], 'shutdown_timeout': 5, 'taskbar': False, 'port': 8000, 'maxthreads': None, 'softcron': False, 'server_name': 'Jonass-MacBook-Air.local', 'bpython': False, 'nogui': False, 'pid_filename': 'httpserver.pid', 'extcron': False, 'runcron': False, 'run_system_tests': False, 'test': None, 'folder': '/Applications/web2py', 'config': '', 'minthreads': None, 'winservice': '', 'shell': None, 'run': '', 'log_filename': 'httpserver.log', 'debuglevel': 30, 'args': [''], 'socket_timeout': 5, 'ssl_ca_certificate': None, 'scheduler': None, 'profiler_filename': None, 'ssl_private_key': '', 'scheduler_groups': None, 'password': '<ask>', 'request_queue_size': 5, 'ssl_certificate': '', 'cronjob': False, 'numthreads': None, 'quiet': False, 'interfaces': None, 'import_models': False, 'timeout': 10, 'plain': False, 'nobanner': False}>"
p3801
asbasbasbag69
(g85
g71
NtRp3802
(dp3803
g74
(dp3804
sg83
g3712
sg76
(lp3805
g69
(g90
g71
NtRp3806
(dp3807
g74
(dp3808
g94
g95
ssg83
g3802
sg76
(lp3809
g2646
asbag69
(g90
g71
NtRp3810
(dp3811
g74
(dp3812
g101
g102
ssg83
g3802
sg76
(lp3813
S':'
asbag69
(g90
g71
NtRp3814
(dp3815
g74
(dp3816
sg83
g3802
sg76
(lp3817
g69
(g70
g71
NtRp3818
(dp3819
g74
(dp3820
g82
I4
ssg83
g3814
sg76
(lp3821
S'set([])'
p3822
asbasbasbag69
(g85
g71
NtRp3823
(dp3824
g74
(dp3825
sg83
g3712
sg76
(lp3826
g69
(g90
g71
NtRp3827
(dp3828
g74
(dp3829
g94
g95
ssg83
g3823
sg76
(lp3830
g2668
asbag69
(g90
g71
NtRp3831
(dp3832
g74
(dp3833
g101
g102
ssg83
g3823
sg76
(lp3834
S':'
asbag69
(g90
g71
NtRp3835
(dp3836
g74
(dp3837
sg83
g3823
sg76
(lp3838
g69
(g70
g71
NtRp3839
(dp3840
g74
(dp3841
g82
I4
ssg83
g3835
sg76
(lp3842
g112
asbasbasbag69
(g85
g71
NtRp3843
(dp3844
g74
(dp3845
sg83
g3712
sg76
(lp3846
g69
(g90
g71
NtRp3847
(dp3848
g74
(dp3849
g94
g95
ssg83
g3843
sg76
(lp3850
g2689
asbag69
(g90
g71
NtRp3851
(dp3852
g74
(dp3853
g101
g102
ssg83
g3843
sg76
(lp3854
S':'
asbag69
(g90
g71
NtRp3855
(dp3856
g74
(dp3857
sg83
g3843
sg76
(lp3858
g69
(g70
g71
NtRp3859
(dp3860
g74
(dp3861
g82
I4
ssg83
g3855
sg76
(lp3862
g2702
asbasbasbag69
(g85
g71
NtRp3863
(dp3864
g74
(dp3865
sg83
g3712
sg76
(lp3866
g69
(g90
g71
NtRp3867
(dp3868
g74
(dp3869
g94
g95
ssg83
g3863
sg76
(lp3870
g2930
asbag69
(g90
g71
NtRp3871
(dp3872
g74
(dp3873
g101
g102
ssg83
g3863
sg76
(lp3874
S':'
asbag69
(g90
g71
NtRp3875
(dp3876
g74
(dp3877
sg83
g3863
sg76
(lp3878
g69
(g70
g71
NtRp3879
(dp3880
g74
(dp3881
g82
I4
ssg83
g3875
sg76
(lp3882
g112
asbasbasbag69
(g85
g71
NtRp3883
(dp3884
g74
(dp3885
sg83
g3712
sg76
(lp3886
g69
(g90
g71
NtRp3887
(dp3888
g74
(dp3889
g94
g95
ssg83
g3883
sg76
(lp3890
g2951
asbag69
(g90
g71
NtRp3891
(dp3892
g74
(dp3893
g101
g102
ssg83
g3883
sg76
(lp3894
S':'
asbag69
(g90
g71
NtRp3895
(dp3896
g74
(dp3897
sg83
g3883
sg76
(lp3898
g69
(g70
g71
NtRp3899
(dp3900
g74
(dp3901
g82
I4
ssg83
g3895
sg76
(lp3902
g112
asbasbasbag69
(g85
g71
NtRp3903
(dp3904
g74
(dp3905
sg83
g3712
sg76
(lp3906
g69
(g90
g71
NtRp3907
(dp3908
g74
(dp3909
g94
g95
ssg83
g3903
sg76
(lp3910
g2972
asbag69
(g90
g71
NtRp3911
(dp3912
g74
(dp3913
g101
g102
ssg83
g3903
sg76
(lp3914
S':'
asbag69
(g90
g71
NtRp3915
(dp3916
g74
(dp3917
sg83
g3903
sg76
(lp3918
g69
(g70
g71
NtRp3919
(dp3920
g74
(dp3921
g82
I4
ssg83
g3915
sg76
(lp3922
g69
(g78
g71
NtRp3923
(dp3924
g74
(dp3925
g82
I3
ssg83
Nsg76
(lp3926
g69
(g85
g71
NtRp3927
(dp3928
g74
(dp3929
sg83
g3923
sg76
(lp3930
g69
(g90
g71
NtRp3931
(dp3932
g74
(dp3933
sg83
g3927
sg76
(lp3934
g69
(g70
g71
NtRp3935
(dp3936
g74
(dp3937
g82
I3
ssg83
g3931
sg76
(lp3938
g3001
asbasbasbag69
(g85
g71
NtRp3939
(dp3940
g74
(dp3941
sg83
g3923
sg76
(lp3942
g69
(g90
g71
NtRp3943
(dp3944
g74
(dp3945
sg83
g3939
sg76
(lp3946
g69
(g70
g71
NtRp3947
(dp3948
g74
(dp3949
g82
I3
ssg83
g3943
sg76
(lp3950
g3014
asbasbasbag69
(g85
g71
NtRp3951
(dp3952
g74
(dp3953
sg83
g3923
sg76
(lp3954
g69
(g90
g71
NtRp3955
(dp3956
g74
(dp3957
sg83
g3951
sg76
(lp3958
g69
(g70
g71
NtRp3959
(dp3960
g74
(dp3961
g82
I3
ssg83
g3955
sg76
(lp3962
g3027
asbasbasbag69
(g85
g71
NtRp3963
(dp3964
g74
(dp3965
sg83
g3923
sg76
(lp3966
g69
(g90
g71
NtRp3967
(dp3968
g74
(dp3969
sg83
g3963
sg76
(lp3970
g69
(g70
g71
NtRp3971
(dp3972
g74
(dp3973
g82
I3
ssg83
g3967
sg76
(lp3974
g3040
asbasbasbag69
(g85
g71
NtRp3975
(dp3976
g74
(dp3977
sg83
g3923
sg76
(lp3978
g69
(g90
g71
NtRp3979
(dp3980
g74
(dp3981
sg83
g3975
sg76
(lp3982
g69
(g70
g71
NtRp3983
(dp3984
g74
(dp3985
g82
I3
ssg83
g3979
sg76
(lp3986
g3053
asbasbasbasbasbasbasbag69
(g85
g71
NtRp3987
(dp3988
g74
(dp3989
sg83
g3712
sg76
(lp3990
g69
(g90
g71
NtRp3991
(dp3992
g74
(dp3993
g94
g95
ssg83
g3987
sg76
(lp3994
g3320
asbag69
(g90
g71
NtRp3995
(dp3996
g74
(dp3997
g101
g102
ssg83
g3987
sg76
(lp3998
S':'
asbag69
(g90
g71
NtRp3999
(dp4000
g74
(dp4001
sg83
g3987
sg76
(lp4002
g69
(g70
g71
NtRp4003
(dp4004
g74
(dp4005
g82
I4
ssg83
g3999
sg76
(lp4006
g69
(g78
g71
NtRp4007
(dp4008
g74
(dp4009
g82
I3
ssg83
Nsg76
(lp4010
g69
(g85
g71
NtRp4011
(dp4012
g74
(dp4013
sg83
g4007
sg76
(lp4014
g69
(g90
g71
NtRp4015
(dp4016
g74
(dp4017
sg83
g4011
sg76
(lp4018
g69
(g70
g71
NtRp4019
(dp4020
g74
(dp4021
g82
I3
ssg83
g4015
sg76
(lp4022
S'2'
asbasbasbag69
(g85
g71
NtRp4023
(dp4024
g74
(dp4025
sg83
g4007
sg76
(lp4026
g69
(g90
g71
NtRp4027
(dp4028
g74
(dp4029
sg83
g4023
sg76
(lp4030
g69
(g70
g71
NtRp4031
(dp4032
g74
(dp4033
g82
I3
ssg83
g4027
sg76
(lp4034
S'2'
asbasbasbag69
(g85
g71
NtRp4035
(dp4036
g74
(dp4037
sg83
g4007
sg76
(lp4038
g69
(g90
g71
NtRp4039
(dp4040
g74
(dp4041
sg83
g4035
sg76
(lp4042
g69
(g70
g71
NtRp4043
(dp4044
g74
(dp4045
g82
I3
ssg83
g4039
sg76
(lp4046
S'1'
asbasbasbag69
(g85
g71
NtRp4047
(dp4048
g74
(dp4049
sg83
g4007
sg76
(lp4050
g69
(g90
g71
NtRp4051
(dp4052
g74
(dp4053
sg83
g4047
sg76
(lp4054
g69
(g70
g71
NtRp4055
(dp4056
g74
(dp4057
g82
I3
ssg83
g4051
sg76
(lp4058
S'datetime.datetime(2012, 11, 9, 14, 11, 30)'
p4059
asbasbasbag69
(g85
g71
NtRp4060
(dp4061
g74
(dp4062
sg83
g4007
sg76
(lp4063
g69
(g90
g71
NtRp4064
(dp4065
g74
(dp4066
sg83
g4060
sg76
(lp4067
g69
(g70
g71
NtRp4068
(dp4069
g74
(dp4070
g82
I3
ssg83
g4064
sg76
(lp4071
g3398
asbasbasbasbasbasbasbasbasbasbasbag69
(g85
g71
NtRp4072
(dp4073
g74
(dp4074
sg83
g79
sg76
(lp4075
g69
(g90
g71
NtRp4076
(dp4077
g74
(dp4078
g94
g95
ssg83
g4072
sg76
(lp4079
S'is_https'
p4080
asbag69
(g90
g71
NtRp4081
(dp4082
g74
(dp4083
g101
g102
ssg83
g4072
sg76
(lp4084
S':'
asbag69
(g90
g71
NtRp4085
(dp4086
g74
(dp4087
sg83
g4072
sg76
(lp4088
g69
(g70
g71
NtRp4089
(dp4090
g74
(dp4091
g82
I5
ssg83
g4085
sg76
(lp4092
g112
asbasbasbag69
(g85
g71
NtRp4093
(dp4094
g74
(dp4095
sg83
g79
sg76
(lp4096
g69
(g90
g71
NtRp4097
(dp4098
g74
(dp4099
g94
g95
ssg83
g4093
sg76
(lp4100
S'is_local'
p4101
asbag69
(g90
g71
NtRp4102
(dp4103
g74
(dp4104
g101
g102
ssg83
g4093
sg76
(lp4105
S':'
asbag69
(g90
g71
NtRp4106
(dp4107
g74
(dp4108
sg83
g4093
sg76
(lp4109
g69
(g70
g71
NtRp4110
(dp4111
g74
(dp4112
g82
I5
ssg83
g4106
sg76
(lp4113
g3507
asbasbasbag69
(g85
g71
NtRp4114
(dp4115
g74
(dp4116
sg83
g79
sg76
(lp4117
g69
(g90
g71
NtRp4118
(dp4119
g74
(dp4120
g94
g95
ssg83
g4114
sg76
(lp4121
S'is_restful'
p4122
asbag69
(g90
g71
NtRp4123
(dp4124
g74
(dp4125
g101
g102
ssg83
g4114
sg76
(lp4126
S':'
asbag69
(g90
g71
NtRp4127
(dp4128
g74
(dp4129
sg83
g4114
sg76
(lp4130
g69
(g70
g71
NtRp4131
(dp4132
g74
(dp4133
g82
I5
ssg83
g4127
sg76
(lp4134
g112
asbasbasbag69
(g85
g71
NtRp4135
(dp4136
g74
(dp4137
sg83
g79
sg76
(lp4138
g69
(g90
g71
NtRp4139
(dp4140
g74
(dp4141
g94
g95
ssg83
g4135
sg76
(lp4142
S'now'
p4143
asbag69
(g90
g71
NtRp4144
(dp4145
g74
(dp4146
g101
g102
ssg83
g4135
sg76
(lp4147
S':'
asbag69
(g90
g71
NtRp4148
(dp4149
g74
(dp4150
sg83
g4135
sg76
(lp4151
g69
(g70
g71
NtRp4152
(dp4153
g74
(dp4154
g82
I5
ssg83
g4148
sg76
(lp4155
S'datetime.datetime(2012, 11, 19, 11, 50, 5, 221223)'
p4156
asbasbasbag69
(g85
g71
NtRp4157
(dp4158
g74
(dp4159
sg83
g79
sg76
(lp4160
g69
(g90
g71
NtRp4161
(dp4162
g74
(dp4163
g94
g95
ssg83
g4157
sg76
(lp4164
S'post_vars'
p4165
asbag69
(g90
g71
NtRp4166
(dp4167
g74
(dp4168
g101
g102
ssg83
g4157
sg76
(lp4169
S':'
asbag69
(g90
g71
NtRp4170
(dp4171
g74
(dp4172
sg83
g4157
sg76
(lp4173
g69
(g70
g71
NtRp4174
(dp4175
g74
(dp4176
g82
I5
ssg83
g4170
sg76
(lp4177
g69
(g78
g71
NtRp4178
(dp4179
g74
(dp4180
g82
I4
ssg83
Nsg76
(lp4181
sbasbasbasbag69
(g85
g71
NtRp4182
(dp4183
g74
(dp4184
sg83
g79
sg76
(lp4185
g69
(g90
g71
NtRp4186
(dp4187
g74
(dp4188
g94
g95
ssg83
g4182
sg76
(lp4189
S'raw_args'
p4190
asbag69
(g90
g71
NtRp4191
(dp4192
g74
(dp4193
g101
g102
ssg83
g4182
sg76
(lp4194
S':'
asbag69
(g90
g71
NtRp4195
(dp4196
g74
(dp4197
sg83
g4182
sg76
(lp4198
g69
(g70
g71
NtRp4199
(dp4200
g74
(dp4201
g82
I5
ssg83
g4195
sg76
(lp4202
S'/db'
p4203
asbasbasbag69
(g85
g71
NtRp4204
(dp4205
g74
(dp4206
sg83
g79
sg76
(lp4207
g69
(g90
g71
NtRp4208
(dp4209
g74
(dp4210
g94
g95
ssg83
g4204
sg76
(lp4211
S'raw_extension'
p4212
asbag69
(g90
g71
NtRp4213
(dp4214
g74
(dp4215
g101
g102
ssg83
g4204
sg76
(lp4216
S':'
asbag69
(g90
g71
NtRp4217
(dp4218
g74
(dp4219
sg83
g4204
sg76
(lp4220
g69
(g70
g71
NtRp4221
(dp4222
g74
(dp4223
g82
I5
ssg83
g4217
sg76
(lp4224
S'None'
p4225
asbasbasbag69
(g85
g71
NtRp4226
(dp4227
g74
(dp4228
sg83
g79
sg76
(lp4229
g69
(g90
g71
NtRp4230
(dp4231
g74
(dp4232
g94
g95
ssg83
g4226
sg76
(lp4233
S'url'
p4234
asbag69
(g90
g71
NtRp4235
(dp4236
g74
(dp4237
g101
g102
ssg83
g4226
sg76
(lp4238
S':'
asbag69
(g90
g71
NtRp4239
(dp4240
g74
(dp4241
sg83
g4226
sg76
(lp4242
g69
(g70
g71
NtRp4243
(dp4244
g74
(dp4245
g82
I5
ssg83
g4239
sg76
(lp4246
g3075
asbasbasbag69
(g85
g71
NtRp4247
(dp4248
g74
(dp4249
sg83
g79
sg76
(lp4250
g69
(g90
g71
NtRp4251
(dp4252
g74
(dp4253
g94
g95
ssg83
g4247
sg76
(lp4254
S'utcnow'
p4255
asbag69
(g90
g71
NtRp4256
(dp4257
g74
(dp4258
g101
g102
ssg83
g4247
sg76
(lp4259
S':'
asbag69
(g90
g71
NtRp4260
(dp4261
g74
(dp4262
sg83
g4247
sg76
(lp4263
g69
(g70
g71
NtRp4264
(dp4265
g74
(dp4266
g82
I5
ssg83
g4260
sg76
(lp4267
S'datetime.datetime(2012, 11, 19, 10, 50, 5, 221237)'
p4268
asbasbasbag69
(g85
g71
NtRp4269
(dp4270
g74
(dp4271
sg83
g79
sg76
(lp4272
g69
(g90
g71
NtRp4273
(dp4274
g74
(dp4275
g94
g95
ssg83
g4269
sg76
(lp4276
S'uuid'
p4277
asbag69
(g90
g71
NtRp4278
(dp4279
g74
(dp4280
g101
g102
ssg83
g4269
sg76
(lp4281
S':'
asbag69
(g90
g71
NtRp4282
(dp4283
g74
(dp4284
sg83
g4269
sg76
(lp4285
g69
(g70
g71
NtRp4286
(dp4287
g74
(dp4288
g82
I5
ssg83
g4282
sg76
(lp4289
S'PythonCheck/127.0.0.1.2012-11-19.11-50-05.6979c5d2-0c9a-41c2-916a-e5e0c00227fc'
p4290
asbasbasbag69
(g85
g71
NtRp4291
(dp4292
g74
(dp4293
sg83
g79
sg76
(lp4294
g69
(g90
g71
NtRp4295
(dp4296
g74
(dp4297
g94
g95
ssg83
g4291
sg76
(lp4298
S'vars'
p4299
asbag69
(g90
g71
NtRp4300
(dp4301
g74
(dp4302
g101
g102
ssg83
g4291
sg76
(lp4303
S':'
asbag69
(g90
g71
NtRp4304
(dp4305
g74
(dp4306
sg83
g4291
sg76
(lp4307
g69
(g70
g71
NtRp4308
(dp4309
g74
(dp4310
g82
I5
ssg83
g4304
sg76
(lp4311
g69
(g78
g71
NtRp4312
(dp4313
g74
(dp4314
g82
I4
ssg83
Nsg76
(lp4315
sbasbasbasbag69
(g85
g71
NtRp4316
(dp4317
g74
(dp4318
sg83
g79
sg76
(lp4319
g69
(g90
g71
NtRp4320
(dp4321
g74
(dp4322
g94
g95
ssg83
g4316
sg76
(lp4323
S'wsgi'
p4324
asbag69
(g90
g71
NtRp4325
(dp4326
g74
(dp4327
g101
g102
ssg83
g4316
sg76
(lp4328
S':'
asbag69
(g90
g71
NtRp4329
(dp4330
g74
(dp4331
sg83
g4316
sg76
(lp4332
g69
(g70
g71
NtRp4333
(dp4334
g74
(dp4335
g82
I5
ssg83
g4329
sg76
(lp4336
g69
(g78
g71
NtRp4337
(dp4338
g74
(dp4339
g82
I4
ssg83
Nsg76
(lp4340
g69
(g85
g71
NtRp4341
(dp4342
g74
(dp4343
sg83
g4337
sg76
(lp4344
g69
(g90
g71
NtRp4345
(dp4346
g74
(dp4347
g94
g95
ssg83
g4341
sg76
(lp4348
S'environ'
p4349
asbag69
(g90
g71
NtRp4350
(dp4351
g74
(dp4352
g101
g102
ssg83
g4341
sg76
(lp4353
S':'
asbag69
(g90
g71
NtRp4354
(dp4355
g74
(dp4356
sg83
g4341
sg76
(lp4357
g69
(g70
g71
NtRp4358
(dp4359
g74
(dp4360
g82
I4
ssg83
g4354
sg76
(lp4361
g69
(g78
g71
NtRp4362
(dp4363
g74
(dp4364
g82
I3
ssg83
Nsg76
(lp4365
g69
(g85
g71
NtRp4366
(dp4367
g74
(dp4368
sg83
g4362
sg76
(lp4369
g69
(g90
g71
NtRp4370
(dp4371
g74
(dp4372
g94
g95
ssg83
g4366
sg76
(lp4373
S'HTTP_ACCEPT'
p4374
asbag69
(g90
g71
NtRp4375
(dp4376
g74
(dp4377
g101
g102
ssg83
g4366
sg76
(lp4378
S':'
asbag69
(g90
g71
NtRp4379
(dp4380
g74
(dp4381
sg83
g4366
sg76
(lp4382
g69
(g70
g71
NtRp4383
(dp4384
g74
(dp4385
g82
I3
ssg83
g4379
sg76
(lp4386
g2724
asbasbasbag69
(g85
g71
NtRp4387
(dp4388
g74
(dp4389
sg83
g4362
sg76
(lp4390
g69
(g90
g71
NtRp4391
(dp4392
g74
(dp4393
g94
g95
ssg83
g4387
sg76
(lp4394
S'HTTP_ACCEPT_CHARSET'
p4395
asbag69
(g90
g71
NtRp4396
(dp4397
g74
(dp4398
g101
g102
ssg83
g4387
sg76
(lp4399
S':'
asbag69
(g90
g71
NtRp4400
(dp4401
g74
(dp4402
sg83
g4387
sg76
(lp4403
g69
(g70
g71
NtRp4404
(dp4405
g74
(dp4406
g82
I3
ssg83
g4400
sg76
(lp4407
g2746
asbasbasbag69
(g85
g71
NtRp4408
(dp4409
g74
(dp4410
sg83
g4362
sg76
(lp4411
g69
(g90
g71
NtRp4412
(dp4413
g74
(dp4414
g94
g95
ssg83
g4408
sg76
(lp4415
S'HTTP_ACCEPT_ENCODING'
p4416
asbag69
(g90
g71
NtRp4417
(dp4418
g74
(dp4419
g101
g102
ssg83
g4408
sg76
(lp4420
S':'
asbag69
(g90
g71
NtRp4421
(dp4422
g74
(dp4423
sg83
g4408
sg76
(lp4424
g69
(g70
g71
NtRp4425
(dp4426
g74
(dp4427
g82
I3
ssg83
g4421
sg76
(lp4428
g2768
asbasbasbag69
(g85
g71
NtRp4429
(dp4430
g74
(dp4431
sg83
g4362
sg76
(lp4432
g69
(g90
g71
NtRp4433
(dp4434
g74
(dp4435
g94
g95
ssg83
g4429
sg76
(lp4436
S'HTTP_ACCEPT_LANGUAGE'
p4437
asbag69
(g90
g71
NtRp4438
(dp4439
g74
(dp4440
g101
g102
ssg83
g4429
sg76
(lp4441
S':'
asbag69
(g90
g71
NtRp4442
(dp4443
g74
(dp4444
sg83
g4429
sg76
(lp4445
g69
(g70
g71
NtRp4446
(dp4447
g74
(dp4448
g82
I3
ssg83
g4442
sg76
(lp4449
g2790
asbasbasbag69
(g85
g71
NtRp4450
(dp4451
g74
(dp4452
sg83
g4362
sg76
(lp4453
g69
(g90
g71
NtRp4454
(dp4455
g74
(dp4456
g94
g95
ssg83
g4450
sg76
(lp4457
S'HTTP_CACHE_CONTROL'
p4458
asbag69
(g90
g71
NtRp4459
(dp4460
g74
(dp4461
g101
g102
ssg83
g4450
sg76
(lp4462
S':'
asbag69
(g90
g71
NtRp4463
(dp4464
g74
(dp4465
sg83
g4450
sg76
(lp4466
g69
(g70
g71
NtRp4467
(dp4468
g74
(dp4469
g82
I3
ssg83
g4463
sg76
(lp4470
g2812
asbasbasbag69
(g85
g71
NtRp4471
(dp4472
g74
(dp4473
sg83
g4362
sg76
(lp4474
g69
(g90
g71
NtRp4475
(dp4476
g74
(dp4477
g94
g95
ssg83
g4471
sg76
(lp4478
S'HTTP_CONNECTION'
p4479
asbag69
(g90
g71
NtRp4480
(dp4481
g74
(dp4482
g101
g102
ssg83
g4471
sg76
(lp4483
S':'
asbag69
(g90
g71
NtRp4484
(dp4485
g74
(dp4486
sg83
g4471
sg76
(lp4487
g69
(g70
g71
NtRp4488
(dp4489
g74
(dp4490
g82
I3
ssg83
g4484
sg76
(lp4491
g2834
asbasbasbag69
(g85
g71
NtRp4492
(dp4493
g74
(dp4494
sg83
g4362
sg76
(lp4495
g69
(g90
g71
NtRp4496
(dp4497
g74
(dp4498
g94
g95
ssg83
g4492
sg76
(lp4499
S'HTTP_COOKIE'
p4500
asbag69
(g90
g71
NtRp4501
(dp4502
g74
(dp4503
g101
g102
ssg83
g4492
sg76
(lp4504
S':'
asbag69
(g90
g71
NtRp4505
(dp4506
g74
(dp4507
sg83
g4492
sg76
(lp4508
g69
(g70
g71
NtRp4509
(dp4510
g74
(dp4511
g82
I3
ssg83
g4505
sg76
(lp4512
g2856
asbasbasbag69
(g85
g71
NtRp4513
(dp4514
g74
(dp4515
sg83
g4362
sg76
(lp4516
g69
(g90
g71
NtRp4517
(dp4518
g74
(dp4519
g94
g95
ssg83
g4513
sg76
(lp4520
S'HTTP_DNT'
p4521
asbag69
(g90
g71
NtRp4522
(dp4523
g74
(dp4524
g101
g102
ssg83
g4513
sg76
(lp4525
S':'
asbag69
(g90
g71
NtRp4526
(dp4527
g74
(dp4528
sg83
g4513
sg76
(lp4529
g69
(g70
g71
NtRp4530
(dp4531
g74
(dp4532
g82
I3
ssg83
g4526
sg76
(lp4533
S'1'
asbasbasbag69
(g85
g71
NtRp4534
(dp4535
g74
(dp4536
sg83
g4362
sg76
(lp4537
g69
(g90
g71
NtRp4538
(dp4539
g74
(dp4540
g94
g95
ssg83
g4534
sg76
(lp4541
S'HTTP_HOST'
p4542
asbag69
(g90
g71
NtRp4543
(dp4544
g74
(dp4545
g101
g102
ssg83
g4534
sg76
(lp4546
S':'
asbag69
(g90
g71
NtRp4547
(dp4548
g74
(dp4549
sg83
g4534
sg76
(lp4550
g69
(g70
g71
NtRp4551
(dp4552
g74
(dp4553
g82
I3
ssg83
g4547
sg76
(lp4554
g2899
asbasbasbag69
(g85
g71
NtRp4555
(dp4556
g74
(dp4557
sg83
g4362
sg76
(lp4558
g69
(g90
g71
NtRp4559
(dp4560
g74
(dp4561
g94
g95
ssg83
g4555
sg76
(lp4562
S'HTTP_USER_AGENT'
p4563
asbag69
(g90
g71
NtRp4564
(dp4565
g74
(dp4566
g101
g102
ssg83
g4555
sg76
(lp4567
S':'
asbag69
(g90
g71
NtRp4568
(dp4569
g74
(dp4570
sg83
g4555
sg76
(lp4571
g69
(g70
g71
NtRp4572
(dp4573
g74
(dp4574
g82
I3
ssg83
g4568
sg76
(lp4575
g2921
asbasbasbag69
(g85
g71
NtRp4576
(dp4577
g74
(dp4578
sg83
g4362
sg76
(lp4579
g69
(g90
g71
NtRp4580
(dp4581
g74
(dp4582
g94
g95
ssg83
g4576
sg76
(lp4583
S'PATH_INFO'
p4584
asbag69
(g90
g71
NtRp4585
(dp4586
g74
(dp4587
g101
g102
ssg83
g4576
sg76
(lp4588
S':'
asbag69
(g90
g71
NtRp4589
(dp4590
g74
(dp4591
sg83
g4576
sg76
(lp4592
g69
(g70
g71
NtRp4593
(dp4594
g74
(dp4595
g82
I3
ssg83
g4589
sg76
(lp4596
g3075
asbasbasbag69
(g85
g71
NtRp4597
(dp4598
g74
(dp4599
sg83
g4362
sg76
(lp4600
g69
(g90
g71
NtRp4601
(dp4602
g74
(dp4603
g94
g95
ssg83
g4597
sg76
(lp4604
S'QUERY_STRING'
p4605
asbag69
(g90
g71
NtRp4606
(dp4607
g74
(dp4608
g101
g102
ssg83
g4597
sg76
(lp4609
S':'
asbag69
(g90
g71
NtRp4610
(dp4611
g74
(dp4612
sg83
g4597
sg76
(lp4613
g69
(g70
g71
NtRp4614
(dp4615
g74
(dp4616
g82
I3
ssg83
g4610
sg76
(lp4617
S''
asbasbasbag69
(g85
g71
NtRp4618
(dp4619
g74
(dp4620
sg83
g4362
sg76
(lp4621
g69
(g90
g71
NtRp4622
(dp4623
g74
(dp4624
g94
g95
ssg83
g4618
sg76
(lp4625
S'REMOTE_ADDR'
p4626
asbag69
(g90
g71
NtRp4627
(dp4628
g74
(dp4629
g101
g102
ssg83
g4618
sg76
(lp4630
S':'
asbag69
(g90
g71
NtRp4631
(dp4632
g74
(dp4633
sg83
g4618
sg76
(lp4634
g69
(g70
g71
NtRp4635
(dp4636
g74
(dp4637
g82
I3
ssg83
g4631
sg76
(lp4638
g237
asbasbasbag69
(g85
g71
NtRp4639
(dp4640
g74
(dp4641
sg83
g4362
sg76
(lp4642
g69
(g90
g71
NtRp4643
(dp4644
g74
(dp4645
g94
g95
ssg83
g4639
sg76
(lp4646
S'REMOTE_PORT'
p4647
asbag69
(g90
g71
NtRp4648
(dp4649
g74
(dp4650
g101
g102
ssg83
g4639
sg76
(lp4651
S':'
asbag69
(g90
g71
NtRp4652
(dp4653
g74
(dp4654
sg83
g4639
sg76
(lp4655
g69
(g70
g71
NtRp4656
(dp4657
g74
(dp4658
g82
I3
ssg83
g4652
sg76
(lp4659
g3139
asbasbasbag69
(g85
g71
NtRp4660
(dp4661
g74
(dp4662
sg83
g4362
sg76
(lp4663
g69
(g90
g71
NtRp4664
(dp4665
g74
(dp4666
g94
g95
ssg83
g4660
sg76
(lp4667
S'REQUEST_METHOD'
p4668
asbag69
(g90
g71
NtRp4669
(dp4670
g74
(dp4671
g101
g102
ssg83
g4660
sg76
(lp4672
S':'
asbag69
(g90
g71
NtRp4673
(dp4674
g74
(dp4675
sg83
g4660
sg76
(lp4676
g69
(g70
g71
NtRp4677
(dp4678
g74
(dp4679
g82
I3
ssg83
g4673
sg76
(lp4680
g3161
asbasbasbag69
(g85
g71
NtRp4681
(dp4682
g74
(dp4683
sg83
g4362
sg76
(lp4684
g69
(g90
g71
NtRp4685
(dp4686
g74
(dp4687
g94
g95
ssg83
g4681
sg76
(lp4688
S'REQUEST_URI'
p4689
asbag69
(g90
g71
NtRp4690
(dp4691
g74
(dp4692
g101
g102
ssg83
g4681
sg76
(lp4693
S':'
asbag69
(g90
g71
NtRp4694
(dp4695
g74
(dp4696
sg83
g4681
sg76
(lp4697
g69
(g70
g71
NtRp4698
(dp4699
g74
(dp4700
g82
I3
ssg83
g4694
sg76
(lp4701
g3075
asbasbasbag69
(g85
g71
NtRp4702
(dp4703
g74
(dp4704
sg83
g4362
sg76
(lp4705
g69
(g90
g71
NtRp4706
(dp4707
g74
(dp4708
g94
g95
ssg83
g4702
sg76
(lp4709
S'SCRIPT_NAME'
p4710
asbag69
(g90
g71
NtRp4711
(dp4712
g74
(dp4713
g101
g102
ssg83
g4702
sg76
(lp4714
S':'
asbag69
(g90
g71
NtRp4715
(dp4716
g74
(dp4717
sg83
g4702
sg76
(lp4718
g69
(g70
g71
NtRp4719
(dp4720
g74
(dp4721
g82
I3
ssg83
g4715
sg76
(lp4722
S''
asbasbasbag69
(g85
g71
NtRp4723
(dp4724
g74
(dp4725
sg83
g4362
sg76
(lp4726
g69
(g90
g71
NtRp4727
(dp4728
g74
(dp4729
g94
g95
ssg83
g4723
sg76
(lp4730
S'SERVER_NAME'
p4731
asbag69
(g90
g71
NtRp4732
(dp4733
g74
(dp4734
g101
g102
ssg83
g4723
sg76
(lp4735
S':'
asbag69
(g90
g71
NtRp4736
(dp4737
g74
(dp4738
sg83
g4723
sg76
(lp4739
g69
(g70
g71
NtRp4740
(dp4741
g74
(dp4742
g82
I3
ssg83
g4736
sg76
(lp4743
g3040
asbasbasbag69
(g85
g71
NtRp4744
(dp4745
g74
(dp4746
sg83
g4362
sg76
(lp4747
g69
(g90
g71
NtRp4748
(dp4749
g74
(dp4750
g94
g95
ssg83
g4744
sg76
(lp4751
S'SERVER_PORT'
p4752
asbag69
(g90
g71
NtRp4753
(dp4754
g74
(dp4755
g101
g102
ssg83
g4744
sg76
(lp4756
S':'
asbag69
(g90
g71
NtRp4757
(dp4758
g74
(dp4759
sg83
g4744
sg76
(lp4760
g69
(g70
g71
NtRp4761
(dp4762
g74
(dp4763
g82
I3
ssg83
g4757
sg76
(lp4764
g3246
asbasbasbag69
(g85
g71
NtRp4765
(dp4766
g74
(dp4767
sg83
g4362
sg76
(lp4768
g69
(g90
g71
NtRp4769
(dp4770
g74
(dp4771
g94
g95
ssg83
g4765
sg76
(lp4772
S'SERVER_PROTOCOL'
p4773
asbag69
(g90
g71
NtRp4774
(dp4775
g74
(dp4776
g101
g102
ssg83
g4765
sg76
(lp4777
S':'
asbag69
(g90
g71
NtRp4778
(dp4779
g74
(dp4780
sg83
g4765
sg76
(lp4781
g69
(g70
g71
NtRp4782
(dp4783
g74
(dp4784
g82
I3
ssg83
g4778
sg76
(lp4785
g3268
asbasbasbag69
(g85
g71
NtRp4786
(dp4787
g74
(dp4788
sg83
g4362
sg76
(lp4789
g69
(g90
g71
NtRp4790
(dp4791
g74
(dp4792
g94
g95
ssg83
g4786
sg76
(lp4793
S'SERVER_SOFTWARE'
p4794
asbag69
(g90
g71
NtRp4795
(dp4796
g74
(dp4797
g101
g102
ssg83
g4786
sg76
(lp4798
S':'
asbag69
(g90
g71
NtRp4799
(dp4800
g74
(dp4801
sg83
g4786
sg76
(lp4802
g69
(g70
g71
NtRp4803
(dp4804
g74
(dp4805
g82
I3
ssg83
g4799
sg76
(lp4806
g3290
asbasbasbag69
(g85
g71
NtRp4807
(dp4808
g74
(dp4809
sg83
g4362
sg76
(lp4810
g69
(g90
g71
NtRp4811
(dp4812
g74
(dp4813
g94
g95
ssg83
g4807
sg76
(lp4814
S'wsgi.errors'
p4815
asbag69
(g90
g71
NtRp4816
(dp4817
g74
(dp4818
g101
g102
ssg83
g4807
sg76
(lp4819
S':'
asbag69
(g90
g71
NtRp4820
(dp4821
g74
(dp4822
sg83
g4807
sg76
(lp4823
g69
(g70
g71
NtRp4824
(dp4825
g74
(dp4826
g82
I3
ssg83
g4820
sg76
(lp4827
S"<open file '<stderr>', mode 'w' at 0x101e79270>"
p4828
asbasbasbag69
(g85
g71
NtRp4829
(dp4830
g74
(dp4831
sg83
g4362
sg76
(lp4832
g69
(g90
g71
NtRp4833
(dp4834
g74
(dp4835
g94
g95
ssg83
g4829
sg76
(lp4836
S'wsgi.file_wrapper'
p4837
asbag69
(g90
g71
NtRp4838
(dp4839
g74
(dp4840
g101
g102
ssg83
g4829
sg76
(lp4841
S':'
asbag69
(g90
g71
NtRp4842
(dp4843
g74
(dp4844
sg83
g4829
sg76
(lp4845
g69
(g70
g71
NtRp4846
(dp4847
g74
(dp4848
g82
I3
ssg83
g4842
sg76
(lp4849
S'<class wsgiref.util.FileWrapper at 0x102bdb8d8>'
p4850
asbasbasbag69
(g85
g71
NtRp4851
(dp4852
g74
(dp4853
sg83
g4362
sg76
(lp4854
g69
(g90
g71
NtRp4855
(dp4856
g74
(dp4857
g94
g95
ssg83
g4851
sg76
(lp4858
S'wsgi.input'
p4859
asbag69
(g90
g71
NtRp4860
(dp4861
g74
(dp4862
g101
g102
ssg83
g4851
sg76
(lp4863
S':'
asbag69
(g90
g71
NtRp4864
(dp4865
g74
(dp4866
sg83
g4851
sg76
(lp4867
g69
(g70
g71
NtRp4868
(dp4869
g74
(dp4870
g82
I3
ssg83
g4864
sg76
(lp4871
S'<cStringIO.StringO object at 0x10a4686c0>'
p4872
asbasbasbag69
(g85
g71
NtRp4873
(dp4874
g74
(dp4875
sg83
g4362
sg76
(lp4876
g69
(g90
g71
NtRp4877
(dp4878
g74
(dp4879
g94
g95
ssg83
g4873
sg76
(lp4880
S'wsgi.multiprocess'
p4881
asbag69
(g90
g71
NtRp4882
(dp4883
g74
(dp4884
g101
g102
ssg83
g4873
sg76
(lp4885
S':'
asbag69
(g90
g71
NtRp4886
(dp4887
g74
(dp4888
sg83
g4873
sg76
(lp4889
g69
(g70
g71
NtRp4890
(dp4891
g74
(dp4892
g82
I3
ssg83
g4886
sg76
(lp4893
g112
asbasbasbag69
(g85
g71
NtRp4894
(dp4895
g74
(dp4896
sg83
g4362
sg76
(lp4897
g69
(g90
g71
NtRp4898
(dp4899
g74
(dp4900
g94
g95
ssg83
g4894
sg76
(lp4901
S'wsgi.multithread'
p4902
asbag69
(g90
g71
NtRp4903
(dp4904
g74
(dp4905
g101
g102
ssg83
g4894
sg76
(lp4906
S':'
asbag69
(g90
g71
NtRp4907
(dp4908
g74
(dp4909
sg83
g4894
sg76
(lp4910
g69
(g70
g71
NtRp4911
(dp4912
g74
(dp4913
g82
I3
ssg83
g4907
sg76
(lp4914
g3507
asbasbasbag69
(g85
g71
NtRp4915
(dp4916
g74
(dp4917
sg83
g4362
sg76
(lp4918
g69
(g90
g71
NtRp4919
(dp4920
g74
(dp4921
g94
g95
ssg83
g4915
sg76
(lp4922
S'wsgi.run_once'
p4923
asbag69
(g90
g71
NtRp4924
(dp4925
g74
(dp4926
g101
g102
ssg83
g4915
sg76
(lp4927
S':'
asbag69
(g90
g71
NtRp4928
(dp4929
g74
(dp4930
sg83
g4915
sg76
(lp4931
g69
(g70
g71
NtRp4932
(dp4933
g74
(dp4934
g82
I3
ssg83
g4928
sg76
(lp4935
g112
asbasbasbag69
(g85
g71
NtRp4936
(dp4937
g74
(dp4938
sg83
g4362
sg76
(lp4939
g69
(g90
g71
NtRp4940
(dp4941
g74
(dp4942
g94
g95
ssg83
g4936
sg76
(lp4943
S'wsgi.url_scheme'
p4944
asbag69
(g90
g71
NtRp4945
(dp4946
g74
(dp4947
g101
g102
ssg83
g4936
sg76
(lp4948
S':'
asbag69
(g90
g71
NtRp4949
(dp4950
g74
(dp4951
sg83
g4936
sg76
(lp4952
g69
(g70
g71
NtRp4953
(dp4954
g74
(dp4955
g82
I3
ssg83
g4949
sg76
(lp4956
g3550
asbasbasbag69
(g85
g71
NtRp4957
(dp4958
g74
(dp4959
sg83
g4362
sg76
(lp4960
g69
(g90
g71
NtRp4961
(dp4962
g74
(dp4963
g94
g95
ssg83
g4957
sg76
(lp4964
S'wsgi.version'
p4965
asbag69
(g90
g71
NtRp4966
(dp4967
g74
(dp4968
g101
g102
ssg83
g4957
sg76
(lp4969
S':'
asbag69
(g90
g71
NtRp4970
(dp4971
g74
(dp4972
sg83
g4957
sg76
(lp4973
g69
(g70
g71
NtRp4974
(dp4975
g74
(dp4976
g82
I3
ssg83
g4970
sg76
(lp4977
S'1'
asbasbasbasbasbasbasbasbasbasbasbasbasbsS'frames'
p4978
(lp4979
(dp4980
S'file'
p4981
S'/Applications/web2py/gluon/restricted.py'
p4982
sS'dump'
p4983
(dp4984
S'code'
p4985
S'"# -*- coding: utf-8 -*-\\n\\n#######################...                label=T(\'Teacher\', lazy=False)))\\n"'
p4986
sS'layer'
p4987
S"'/Applications/web2py/applications/PythonCheck/models/db.py'"
p4988
sS'global compile2'
p4989
S'<function compile2>'
p4990
sS'ccode'
p4991
S'undefined'
p4992
ssS'lnum'
p4993
I211
sS'lines'
p4994
(dp4995
I206
S"    environment['__name__'] = '__restricted__'"
p4996
sI207
S'    try:'
p4997
sI208
S'        if isinstance(code, types.CodeType):'
p4998
sI209
S'            ccode = code'
p4999
sI210
S'        else:'
p5000
sI211
S'            ccode = compile2(code, layer)'
p5001
sI212
S'        exec ccode in environment'
p5002
sI213
S'    except HTTP:'
p5003
sI214
S'        raise'
p5004
sI215
S'    except RestrictedError:'
p5005
ssS'call'
p5006
S'(code="# -*- coding: utf-8 -*-\\n\\n#######################...                label=T(\'Teacher\', lazy=False)))\\n", environment={\'A\': <class \'gluon.html.A\'>, \'B\': <class \'gluon.html.B\'>, \'BEAUTIFY\': <class \'gluon.html.BEAUTIFY\'>, \'BODY\': <class \'gluon.html.BODY\'>, \'BR\': <class \'gluon.html.BR\'>, \'BUTTON\': <class \'gluon.html.BUTTON\'>, \'CAT\': <class \'gluon.html.CAT\'>, \'CENTER\': <class \'gluon.html.CENTER\'>, \'CLEANUP\': <class \'gluon.validators.CLEANUP\'>, \'CODE\': <class \'gluon.html.CODE\'>, ...}, layer=\'/Applications/web2py/applications/PythonCheck/models/db.py\')'
p5007
sS'func'
p5008
S'restricted'
p5009
sa(dp5010
g4981
S'/Applications/web2py/gluon/restricted.py'
p5011
sg4983
(dp5012
S'builtincompile'
p5013
S'<built-in function compile>'
p5014
sS'code'
p5015
S'"# -*- coding: utf-8 -*-\\n\\n#######################...                label=T(\'Teacher\', lazy=False)))\\n"'
p5016
sS'code.rstrip'
p5017
S'<built-in method rstrip of str object>'
p5018
sS').replace'
p5019
g4992
sS'layer'
p5020
S"'/Applications/web2py/applications/PythonCheck/models/db.py'"
p5021
ssg4993
I194
sg4994
(dp5022
I192
S"    The +'\\n' is necessary else compile fails when code ends in a comment."
p5023
sI193
S'    """'
p5024
sI194
S"    return compile(code.rstrip().replace('\\r\\n', '\\n') + '\\n', layer, 'exec')"
p5025
sI195
S''
sI196
S''
sI197
S"def restricted(code, environment=None, layer='Unknown'):"
p5026
sI198
S'    """'
p5027
sI189
S''
sI190
S'def compile2(code, layer):'
p5028
sI191
S'    """'
p5029
ssg5006
S'(code="# -*- coding: utf-8 -*-\\n\\n#######################...                label=T(\'Teacher\', lazy=False)))\\n", layer=\'/Applications/web2py/applications/PythonCheck/models/db.py\')'
p5030
sg5008
S'compile2'
p5031
sasS'pyver'
p5032
S'Python 2.7.2: /System/Library/Frameworks/Python.framework/Versions/2.7/Resources/Python.app/Contents/MacOS/Python'
p5033
sS'session'
p5034
g69
(g70
g71
NtRp5035
(dp5036
g74
(dp5037
sg76
(lp5038
g69
(g78
g71
NtRp5039
(dp5040
g74
(dp5041
g82
I5
ssg83
Nsg76
(lp5042
g69
(g85
g71
NtRp5043
(dp5044
g74
(dp5045
sg83
g5039
sg76
(lp5046
g69
(g90
g71
NtRp5047
(dp5048
g74
(dp5049
g94
g95
ssg83
g5043
sg76
(lp5050
S'auth'
p5051
asbag69
(g90
g71
NtRp5052
(dp5053
g74
(dp5054
g101
g102
ssg83
g5043
sg76
(lp5055
S':'
asbag69
(g90
g71
NtRp5056
(dp5057
g74
(dp5058
sg83
g5043
sg76
(lp5059
g69
(g70
g71
NtRp5060
(dp5061
g74
(dp5062
g82
I5
ssg83
g5056
sg76
(lp5063
g69
(g78
g71
NtRp5064
(dp5065
g74
(dp5066
g82
I4
ssg83
Nsg76
(lp5067
g69
(g85
g71
NtRp5068
(dp5069
g74
(dp5070
sg83
g5064
sg76
(lp5071
g69
(g90
g71
NtRp5072
(dp5073
g74
(dp5074
g94
g95
ssg83
g5068
sg76
(lp5075
S'expiration'
p5076
asbag69
(g90
g71
NtRp5077
(dp5078
g74
(dp5079
g101
g102
ssg83
g5068
sg76
(lp5080
S':'
asbag69
(g90
g71
NtRp5081
(dp5082
g74
(dp5083
sg83
g5068
sg76
(lp5084
g69
(g70
g71
NtRp5085
(dp5086
g74
(dp5087
g82
I4
ssg83
g5081
sg76
(lp5088
S'3600'
p5089
asbasbasbag69
(g85
g71
NtRp5090
(dp5091
g74
(dp5092
sg83
g5064
sg76
(lp5093
g69
(g90
g71
NtRp5094
(dp5095
g74
(dp5096
g94
g95
ssg83
g5090
sg76
(lp5097
S'hmac_key'
p5098
asbag69
(g90
g71
NtRp5099
(dp5100
g74
(dp5101
g101
g102
ssg83
g5090
sg76
(lp5102
S':'
asbag69
(g90
g71
NtRp5103
(dp5104
g74
(dp5105
sg83
g5090
sg76
(lp5106
g69
(g70
g71
NtRp5107
(dp5108
g74
(dp5109
g82
I4
ssg83
g5103
sg76
(lp5110
S'f9d20de5-63a4-461c-aab9-72fd298e45a6'
p5111
asbasbasbag69
(g85
g71
NtRp5112
(dp5113
g74
(dp5114
sg83
g5064
sg76
(lp5115
g69
(g90
g71
NtRp5116
(dp5117
g74
(dp5118
g94
g95
ssg83
g5112
sg76
(lp5119
S'last_visit'
p5120
asbag69
(g90
g71
NtRp5121
(dp5122
g74
(dp5123
g101
g102
ssg83
g5112
sg76
(lp5124
S':'
asbag69
(g90
g71
NtRp5125
(dp5126
g74
(dp5127
sg83
g5112
sg76
(lp5128
g69
(g70
g71
NtRp5129
(dp5130
g74
(dp5131
g82
I4
ssg83
g5125
sg76
(lp5132
S'datetime.datetime(2012, 11, 19, 10, 53, 40, 176992)'
p5133
asbasbasbag69
(g85
g71
NtRp5134
(dp5135
g74
(dp5136
sg83
g5064
sg76
(lp5137
g69
(g90
g71
NtRp5138
(dp5139
g74
(dp5140
g94
g95
ssg83
g5134
sg76
(lp5141
S'user'
p5142
asbag69
(g90
g71
NtRp5143
(dp5144
g74
(dp5145
g101
g102
ssg83
g5134
sg76
(lp5146
S':'
asbag69
(g90
g71
NtRp5147
(dp5148
g74
(dp5149
sg83
g5134
sg76
(lp5150
g69
(g70
g71
NtRp5151
(dp5152
g74
(dp5153
g82
I4
ssg83
g5147
sg76
(lp5154
g69
(g78
g71
NtRp5155
(dp5156
g74
(dp5157
g82
I3
ssg83
Nsg76
(lp5158
g69
(g85
g71
NtRp5159
(dp5160
g74
(dp5161
sg83
g5155
sg76
(lp5162
g69
(g90
g71
NtRp5163
(dp5164
g74
(dp5165
g94
g95
ssg83
g5159
sg76
(lp5166
S'email'
p5167
asbag69
(g90
g71
NtRp5168
(dp5169
g74
(dp5170
g101
g102
ssg83
g5159
sg76
(lp5171
S':'
asbag69
(g90
g71
NtRp5172
(dp5173
g74
(dp5174
sg83
g5159
sg76
(lp5175
g69
(g70
g71
NtRp5176
(dp5177
g74
(dp5178
g82
I3
ssg83
g5172
sg76
(lp5179
S'jonas.keisel@gmail.com'
p5180
asbasbasbag69
(g85
g71
NtRp5181
(dp5182
g74
(dp5183
sg83
g5155
sg76
(lp5184
g69
(g90
g71
NtRp5185
(dp5186
g74
(dp5187
g94
g95
ssg83
g5181
sg76
(lp5188
S'first_name'
p5189
asbag69
(g90
g71
NtRp5190
(dp5191
g74
(dp5192
g101
g102
ssg83
g5181
sg76
(lp5193
S':'
asbag69
(g90
g71
NtRp5194
(dp5195
g74
(dp5196
sg83
g5181
sg76
(lp5197
g69
(g70
g71
NtRp5198
(dp5199
g74
(dp5200
g82
I3
ssg83
g5194
sg76
(lp5201
S'Jonas'
p5202
asbasbasbag69
(g85
g71
NtRp5203
(dp5204
g74
(dp5205
sg83
g5155
sg76
(lp5206
g69
(g90
g71
NtRp5207
(dp5208
g74
(dp5209
g94
g95
ssg83
g5203
sg76
(lp5210
S'id'
p5211
asbag69
(g90
g71
NtRp5212
(dp5213
g74
(dp5214
g101
g102
ssg83
g5203
sg76
(lp5215
S':'
asbag69
(g90
g71
NtRp5216
(dp5217
g74
(dp5218
sg83
g5203
sg76
(lp5219
g69
(g70
g71
NtRp5220
(dp5221
g74
(dp5222
g82
I3
ssg83
g5216
sg76
(lp5223
S'2'
asbasbasbag69
(g85
g71
NtRp5224
(dp5225
g74
(dp5226
sg83
g5155
sg76
(lp5227
g69
(g90
g71
NtRp5228
(dp5229
g74
(dp5230
g94
g95
ssg83
g5224
sg76
(lp5231
S'last_name'
p5232
asbag69
(g90
g71
NtRp5233
(dp5234
g74
(dp5235
g101
g102
ssg83
g5224
sg76
(lp5236
S':'
asbag69
(g90
g71
NtRp5237
(dp5238
g74
(dp5239
sg83
g5224
sg76
(lp5240
g69
(g70
g71
NtRp5241
(dp5242
g74
(dp5243
g82
I3
ssg83
g5237
sg76
(lp5244
S'Keisel'
p5245
asbasbasbag69
(g85
g71
NtRp5246
(dp5247
g74
(dp5248
sg83
g5155
sg76
(lp5249
g69
(g90
g71
NtRp5250
(dp5251
g74
(dp5252
g94
g95
ssg83
g5246
sg76
(lp5253
S'registration_id'
p5254
asbag69
(g90
g71
NtRp5255
(dp5256
g74
(dp5257
g101
g102
ssg83
g5246
sg76
(lp5258
S':'
asbag69
(g90
g71
NtRp5259
(dp5260
g74
(dp5261
sg83
g5246
sg76
(lp5262
g69
(g70
g71
NtRp5263
(dp5264
g74
(dp5265
g82
I3
ssg83
g5259
sg76
(lp5266
S''
asbasbasbag69
(g85
g71
NtRp5267
(dp5268
g74
(dp5269
sg83
g5155
sg76
(lp5270
g69
(g90
g71
NtRp5271
(dp5272
g74
(dp5273
g94
g95
ssg83
g5267
sg76
(lp5274
S'registration_key'
p5275
asbag69
(g90
g71
NtRp5276
(dp5277
g74
(dp5278
g101
g102
ssg83
g5267
sg76
(lp5279
S':'
asbag69
(g90
g71
NtRp5280
(dp5281
g74
(dp5282
sg83
g5267
sg76
(lp5283
g69
(g70
g71
NtRp5284
(dp5285
g74
(dp5286
g82
I3
ssg83
g5280
sg76
(lp5287
S''
asbasbasbag69
(g85
g71
NtRp5288
(dp5289
g74
(dp5290
sg83
g5155
sg76
(lp5291
g69
(g90
g71
NtRp5292
(dp5293
g74
(dp5294
g94
g95
ssg83
g5288
sg76
(lp5295
S'reset_password_key'
p5296
asbag69
(g90
g71
NtRp5297
(dp5298
g74
(dp5299
g101
g102
ssg83
g5288
sg76
(lp5300
S':'
asbag69
(g90
g71
NtRp5301
(dp5302
g74
(dp5303
sg83
g5288
sg76
(lp5304
g69
(g70
g71
NtRp5305
(dp5306
g74
(dp5307
g82
I3
ssg83
g5301
sg76
(lp5308
S''
asbasbasbasbasbasbasbag69
(g85
g71
NtRp5309
(dp5310
g74
(dp5311
sg83
g5064
sg76
(lp5312
g69
(g90
g71
NtRp5313
(dp5314
g74
(dp5315
g94
g95
ssg83
g5309
sg76
(lp5316
S'user_groups'
p5317
asbag69
(g90
g71
NtRp5318
(dp5319
g74
(dp5320
g101
g102
ssg83
g5309
sg76
(lp5321
S':'
asbag69
(g90
g71
NtRp5322
(dp5323
g74
(dp5324
sg83
g5309
sg76
(lp5325
g69
(g70
g71
NtRp5326
(dp5327
g74
(dp5328
g82
I4
ssg83
g5322
sg76
(lp5329
g69
(g78
g71
NtRp5330
(dp5331
g74
(dp5332
g82
I3
ssg83
Nsg76
(lp5333
g69
(g85
g71
NtRp5334
(dp5335
g74
(dp5336
sg83
g5330
sg76
(lp5337
g69
(g90
g71
NtRp5338
(dp5339
g74
(dp5340
g94
g95
ssg83
g5334
sg76
(lp5341
S'1'
asbag69
(g90
g71
NtRp5342
(dp5343
g74
(dp5344
g101
g102
ssg83
g5334
sg76
(lp5345
S':'
asbag69
(g90
g71
NtRp5346
(dp5347
g74
(dp5348
sg83
g5334
sg76
(lp5349
g69
(g70
g71
NtRp5350
(dp5351
g74
(dp5352
g82
I3
ssg83
g5346
sg76
(lp5353
S'student'
p5354
asbasbasbasbasbasbasbasbasbasbasbag69
(g85
g71
NtRp5355
(dp5356
g74
(dp5357
sg83
g5039
sg76
(lp5358
g69
(g90
g71
NtRp5359
(dp5360
g74
(dp5361
g94
g95
ssg83
g5355
sg76
(lp5362
S'flash'
p5363
asbag69
(g90
g71
NtRp5364
(dp5365
g74
(dp5366
g101
g102
ssg83
g5355
sg76
(lp5367
S':'
asbag69
(g90
g71
NtRp5368
(dp5369
g74
(dp5370
sg83
g5355
sg76
(lp5371
g69
(g70
g71
NtRp5372
(dp5373
g74
(dp5374
g82
I5
ssg83
g5368
sg76
(lp5375
S'None'
p5376
asbasbasbag69
(g85
g71
NtRp5377
(dp5378
g74
(dp5379
sg83
g5039
sg76
(lp5380
g69
(g90
g71
NtRp5381
(dp5382
g74
(dp5383
g94
g95
ssg83
g5377
sg76
(lp5384
S'last_orderby'
p5385
asbag69
(g90
g71
NtRp5386
(dp5387
g74
(dp5388
g101
g102
ssg83
g5377
sg76
(lp5389
S':'
asbag69
(g90
g71
NtRp5390
(dp5391
g74
(dp5392
sg83
g5377
sg76
(lp5393
g69
(g70
g71
NtRp5394
(dp5395
g74
(dp5396
g82
I5
ssg83
g5390
sg76
(lp5397
S'None'
p5398
asbasbasbag69
(g85
g71
NtRp5399
(dp5400
g74
(dp5401
sg83
g5039
sg76
(lp5402
g69
(g90
g71
NtRp5403
(dp5404
g74
(dp5405
g94
g95
ssg83
g5399
sg76
(lp5406
S'last_query'
p5407
asbag69
(g90
g71
NtRp5408
(dp5409
g74
(dp5410
g101
g102
ssg83
g5399
sg76
(lp5411
S':'
asbag69
(g90
g71
NtRp5412
(dp5413
g74
(dp5414
sg83
g5399
sg76
(lp5415
g69
(g70
g71
NtRp5416
(dp5417
g74
(dp5418
g82
I5
ssg83
g5412
sg76
(lp5419
S'db.auth_group.id>0'
p5420
asbasbasbasbasbsS'etype'
p5421
S"<type 'exceptions.SyntaxError'>"
p5422
sS'date'
p5423
S'Mon Nov 19 11:50:05 2012'
p5424
sS'response'
p5425
g69
(g70
g71
NtRp5426
(dp5427
g74
(dp5428
sg76
(lp5429
g69
(g78
g71
NtRp5430
(dp5431
g74
(dp5432
g82
I5
ssg83
Nsg76
(lp5433
g69
(g85
g71
NtRp5434
(dp5435
g74
(dp5436
sg83
g5430
sg76
(lp5437
g69
(g90
g71
NtRp5438
(dp5439
g74
(dp5440
g94
g95
ssg83
g5434
sg76
(lp5441
g180
asbag69
(g90
g71
NtRp5442
(dp5443
g74
(dp5444
g101
g102
ssg83
g5434
sg76
(lp5445
S':'
asbag69
(g90
g71
NtRp5446
(dp5447
g74
(dp5448
sg83
g5434
sg76
(lp5449
g69
(g70
g71
NtRp5450
(dp5451
g74
(dp5452
g82
I5
ssg83
g5446
sg76
(lp5453
S'<cStringIO.StringO object at 0x108f7aed8>'
p5454
asbasbasbag69
(g85
g71
NtRp5455
(dp5456
g74
(dp5457
sg83
g5430
sg76
(lp5458
g69
(g90
g71
NtRp5459
(dp5460
g74
(dp5461
g94
g95
ssg83
g5455
sg76
(lp5462
g268
asbag69
(g90
g71
NtRp5463
(dp5464
g74
(dp5465
g101
g102
ssg83
g5455
sg76
(lp5466
S':'
asbag69
(g90
g71
NtRp5467
(dp5468
g74
(dp5469
sg83
g5455
sg76
(lp5470
g69
(g70
g71
NtRp5471
(dp5472
g74
(dp5473
g82
I5
ssg83
g5467
sg76
(lp5474
g69
(g78
g71
NtRp5475
(dp5476
g74
(dp5477
g82
I4
ssg83
Nsg76
(lp5478
g69
(g85
g71
NtRp5479
(dp5480
g74
(dp5481
sg83
g5475
sg76
(lp5482
g69
(g90
g71
NtRp5483
(dp5484
g74
(dp5485
g94
g95
ssg83
g5479
sg76
(lp5486
S'session_id_pythoncheck'
p5487
asbag69
(g90
g71
NtRp5488
(dp5489
g74
(dp5490
g101
g102
ssg83
g5479
sg76
(lp5491
S':'
asbag69
(g90
g71
NtRp5492
(dp5493
g74
(dp5494
sg83
g5479
sg76
(lp5495
g69
(g70
g71
NtRp5496
(dp5497
g74
(dp5498
g82
I4
ssg83
g5492
sg76
(lp5499
g2171
ag69
(g78
g71
NtRp5500
(dp5501
g74
(dp5502
g82
I3
ssg83
Nsg76
(lp5503
g69
(g85
g71
NtRp5504
(dp5505
g74
(dp5506
sg83
g5500
sg76
(lp5507
g69
(g90
g71
NtRp5508
(dp5509
g74
(dp5510
g94
g95
ssg83
g5504
sg76
(lp5511
g319
asbag69
(g90
g71
NtRp5512
(dp5513
g74
(dp5514
g101
g102
ssg83
g5504
sg76
(lp5515
S':'
asbag69
(g90
g71
NtRp5516
(dp5517
g74
(dp5518
sg83
g5504
sg76
(lp5519
g69
(g70
g71
NtRp5520
(dp5521
g74
(dp5522
g82
I3
ssg83
g5516
sg76
(lp5523
S''
asbasbasbag69
(g85
g71
NtRp5524
(dp5525
g74
(dp5526
sg83
g5500
sg76
(lp5527
g69
(g90
g71
NtRp5528
(dp5529
g74
(dp5530
g94
g95
ssg83
g5524
sg76
(lp5531
g340
asbag69
(g90
g71
NtRp5532
(dp5533
g74
(dp5534
g101
g102
ssg83
g5524
sg76
(lp5535
S':'
asbag69
(g90
g71
NtRp5536
(dp5537
g74
(dp5538
sg83
g5524
sg76
(lp5539
g69
(g70
g71
NtRp5540
(dp5541
g74
(dp5542
g82
I3
ssg83
g5536
sg76
(lp5543
S''
asbasbasbag69
(g85
g71
NtRp5544
(dp5545
g74
(dp5546
sg83
g5500
sg76
(lp5547
g69
(g90
g71
NtRp5548
(dp5549
g74
(dp5550
g94
g95
ssg83
g5544
sg76
(lp5551
g361
asbag69
(g90
g71
NtRp5552
(dp5553
g74
(dp5554
g101
g102
ssg83
g5544
sg76
(lp5555
S':'
asbag69
(g90
g71
NtRp5556
(dp5557
g74
(dp5558
sg83
g5544
sg76
(lp5559
g69
(g70
g71
NtRp5560
(dp5561
g74
(dp5562
g82
I3
ssg83
g5556
sg76
(lp5563
S''
asbasbasbag69
(g85
g71
NtRp5564
(dp5565
g74
(dp5566
sg83
g5500
sg76
(lp5567
g69
(g90
g71
NtRp5568
(dp5569
g74
(dp5570
g94
g95
ssg83
g5564
sg76
(lp5571
g382
asbag69
(g90
g71
NtRp5572
(dp5573
g74
(dp5574
g101
g102
ssg83
g5564
sg76
(lp5575
S':'
asbag69
(g90
g71
NtRp5576
(dp5577
g74
(dp5578
sg83
g5564
sg76
(lp5579
g69
(g70
g71
NtRp5580
(dp5581
g74
(dp5582
g82
I3
ssg83
g5576
sg76
(lp5583
S''
asbasbasbag69
(g85
g71
NtRp5584
(dp5585
g74
(dp5586
sg83
g5500
sg76
(lp5587
g69
(g90
g71
NtRp5588
(dp5589
g74
(dp5590
g94
g95
ssg83
g5584
sg76
(lp5591
g403
asbag69
(g90
g71
NtRp5592
(dp5593
g74
(dp5594
g101
g102
ssg83
g5584
sg76
(lp5595
S':'
asbag69
(g90
g71
NtRp5596
(dp5597
g74
(dp5598
sg83
g5584
sg76
(lp5599
g69
(g70
g71
NtRp5600
(dp5601
g74
(dp5602
g82
I3
ssg83
g5596
sg76
(lp5603
S''
asbasbasbag69
(g85
g71
NtRp5604
(dp5605
g74
(dp5606
sg83
g5500
sg76
(lp5607
g69
(g90
g71
NtRp5608
(dp5609
g74
(dp5610
g94
g95
ssg83
g5604
sg76
(lp5611
g424
asbag69
(g90
g71
NtRp5612
(dp5613
g74
(dp5614
g101
g102
ssg83
g5604
sg76
(lp5615
S':'
asbag69
(g90
g71
NtRp5616
(dp5617
g74
(dp5618
sg83
g5604
sg76
(lp5619
g69
(g70
g71
NtRp5620
(dp5621
g74
(dp5622
g82
I3
ssg83
g5616
sg76
(lp5623
S'/'
asbasbasbag69
(g85
g71
NtRp5624
(dp5625
g74
(dp5626
sg83
g5500
sg76
(lp5627
g69
(g90
g71
NtRp5628
(dp5629
g74
(dp5630
g94
g95
ssg83
g5624
sg76
(lp5631
g445
asbag69
(g90
g71
NtRp5632
(dp5633
g74
(dp5634
g101
g102
ssg83
g5624
sg76
(lp5635
S':'
asbag69
(g90
g71
NtRp5636
(dp5637
g74
(dp5638
sg83
g5624
sg76
(lp5639
g69
(g70
g71
NtRp5640
(dp5641
g74
(dp5642
g82
I3
ssg83
g5636
sg76
(lp5643
S''
asbasbasbag69
(g85
g71
NtRp5644
(dp5645
g74
(dp5646
sg83
g5500
sg76
(lp5647
g69
(g90
g71
NtRp5648
(dp5649
g74
(dp5650
g94
g95
ssg83
g5644
sg76
(lp5651
g466
asbag69
(g90
g71
NtRp5652
(dp5653
g74
(dp5654
g101
g102
ssg83
g5644
sg76
(lp5655
S':'
asbag69
(g90
g71
NtRp5656
(dp5657
g74
(dp5658
sg83
g5644
sg76
(lp5659
g69
(g70
g71
NtRp5660
(dp5661
g74
(dp5662
g82
I3
ssg83
g5656
sg76
(lp5663
S''
asbasbasbasbasbasbasbasbasbasbasbag69
(g85
g71
NtRp5664
(dp5665
g74
(dp5666
sg83
g5430
sg76
(lp5667
g69
(g90
g71
NtRp5668
(dp5669
g74
(dp5670
g94
g95
ssg83
g5664
sg76
(lp5671
S'delimiters'
p5672
asbag69
(g90
g71
NtRp5673
(dp5674
g74
(dp5675
g101
g102
ssg83
g5664
sg76
(lp5676
S':'
asbag69
(g90
g71
NtRp5677
(dp5678
g74
(dp5679
sg83
g5664
sg76
(lp5680
g69
(g70
g71
NtRp5681
(dp5682
g74
(dp5683
g82
I5
ssg83
g5677
sg76
(lp5684
g69
(g78
g71
NtRp5685
(dp5686
g74
(dp5687
g82
I4
ssg83
Nsg76
(lp5688
g69
(g85
g71
NtRp5689
(dp5690
g74
(dp5691
sg83
g5685
sg76
(lp5692
g69
(g90
g71
NtRp5693
(dp5694
g74
(dp5695
sg83
g5689
sg76
(lp5696
g69
(g70
g71
NtRp5697
(dp5698
g74
(dp5699
g82
I4
ssg83
g5693
sg76
(lp5700
S'{{'
p5701
asbasbasbag69
(g85
g71
NtRp5702
(dp5703
g74
(dp5704
sg83
g5685
sg76
(lp5705
g69
(g90
g71
NtRp5706
(dp5707
g74
(dp5708
sg83
g5702
sg76
(lp5709
g69
(g70
g71
NtRp5710
(dp5711
g74
(dp5712
g82
I4
ssg83
g5706
sg76
(lp5713
S'}}'
p5714
asbasbasbasbasbasbasbag69
(g85
g71
NtRp5715
(dp5716
g74
(dp5717
sg83
g5430
sg76
(lp5718
g69
(g90
g71
NtRp5719
(dp5720
g74
(dp5721
g94
g95
ssg83
g5715
sg76
(lp5722
S'files'
p5723
asbag69
(g90
g71
NtRp5724
(dp5725
g74
(dp5726
g101
g102
ssg83
g5715
sg76
(lp5727
S':'
asbag69
(g90
g71
NtRp5728
(dp5729
g74
(dp5730
sg83
g5715
sg76
(lp5731
g69
(g70
g71
NtRp5732
(dp5733
g74
(dp5734
g82
I5
ssg83
g5728
sg76
(lp5735
g69
(g78
g71
NtRp5736
(dp5737
g74
(dp5738
g82
I4
ssg83
Nsg76
(lp5739
sbasbasbasbag69
(g85
g71
NtRp5740
(dp5741
g74
(dp5742
sg83
g5430
sg76
(lp5743
g69
(g90
g71
NtRp5744
(dp5745
g74
(dp5746
g94
g95
ssg83
g5740
sg76
(lp5747
S'flash'
p5748
asbag69
(g90
g71
NtRp5749
(dp5750
g74
(dp5751
g101
g102
ssg83
g5740
sg76
(lp5752
S':'
asbag69
(g90
g71
NtRp5753
(dp5754
g74
(dp5755
sg83
g5740
sg76
(lp5756
g69
(g70
g71
NtRp5757
(dp5758
g74
(dp5759
g82
I5
ssg83
g5753
sg76
(lp5760
S''
asbasbasbag69
(g85
g71
NtRp5761
(dp5762
g74
(dp5763
sg83
g5430
sg76
(lp5764
g69
(g90
g71
NtRp5765
(dp5766
g74
(dp5767
g94
g95
ssg83
g5761
sg76
(lp5768
S'generic_patterns'
p5769
asbag69
(g90
g71
NtRp5770
(dp5771
g74
(dp5772
g101
g102
ssg83
g5761
sg76
(lp5773
S':'
asbag69
(g90
g71
NtRp5774
(dp5775
g74
(dp5776
sg83
g5761
sg76
(lp5777
g69
(g70
g71
NtRp5778
(dp5779
g74
(dp5780
g82
I5
ssg83
g5774
sg76
(lp5781
g69
(g78
g71
NtRp5782
(dp5783
g74
(dp5784
g82
I4
ssg83
Nsg76
(lp5785
sbasbasbasbag69
(g85
g71
NtRp5786
(dp5787
g74
(dp5788
sg83
g5430
sg76
(lp5789
g69
(g90
g71
NtRp5790
(dp5791
g74
(dp5792
g94
g95
ssg83
g5786
sg76
(lp5793
S'headers'
p5794
asbag69
(g90
g71
NtRp5795
(dp5796
g74
(dp5797
g101
g102
ssg83
g5786
sg76
(lp5798
S':'
asbag69
(g90
g71
NtRp5799
(dp5800
g74
(dp5801
sg83
g5786
sg76
(lp5802
g69
(g70
g71
NtRp5803
(dp5804
g74
(dp5805
g82
I5
ssg83
g5799
sg76
(lp5806
g69
(g78
g71
NtRp5807
(dp5808
g74
(dp5809
g82
I4
ssg83
Nsg76
(lp5810
g69
(g85
g71
NtRp5811
(dp5812
g74
(dp5813
sg83
g5807
sg76
(lp5814
g69
(g90
g71
NtRp5815
(dp5816
g74
(dp5817
g94
g95
ssg83
g5811
sg76
(lp5818
S'X-Powered-By'
p5819
asbag69
(g90
g71
NtRp5820
(dp5821
g74
(dp5822
g101
g102
ssg83
g5811
sg76
(lp5823
S':'
asbag69
(g90
g71
NtRp5824
(dp5825
g74
(dp5826
sg83
g5811
sg76
(lp5827
g69
(g70
g71
NtRp5828
(dp5829
g74
(dp5830
g82
I4
ssg83
g5824
sg76
(lp5831
S'web2py'
p5832
asbasbasbasbasbasbasbag69
(g85
g71
NtRp5833
(dp5834
g74
(dp5835
sg83
g5430
sg76
(lp5836
g69
(g90
g71
NtRp5837
(dp5838
g74
(dp5839
g94
g95
ssg83
g5833
sg76
(lp5840
S'menu'
p5841
asbag69
(g90
g71
NtRp5842
(dp5843
g74
(dp5844
g101
g102
ssg83
g5833
sg76
(lp5845
S':'
asbag69
(g90
g71
NtRp5846
(dp5847
g74
(dp5848
sg83
g5833
sg76
(lp5849
g69
(g70
g71
NtRp5850
(dp5851
g74
(dp5852
g82
I5
ssg83
g5846
sg76
(lp5853
g69
(g78
g71
NtRp5854
(dp5855
g74
(dp5856
g82
I4
ssg83
Nsg76
(lp5857
sbasbasbasbag69
(g85
g71
NtRp5858
(dp5859
g74
(dp5860
sg83
g5430
sg76
(lp5861
g69
(g90
g71
NtRp5862
(dp5863
g74
(dp5864
g94
g95
ssg83
g5858
sg76
(lp5865
S'meta'
p5866
asbag69
(g90
g71
NtRp5867
(dp5868
g74
(dp5869
g101
g102
ssg83
g5858
sg76
(lp5870
S':'
asbag69
(g90
g71
NtRp5871
(dp5872
g74
(dp5873
sg83
g5858
sg76
(lp5874
g69
(g70
g71
NtRp5875
(dp5876
g74
(dp5877
g82
I5
ssg83
g5871
sg76
(lp5878
g69
(g78
g71
NtRp5879
(dp5880
g74
(dp5881
g82
I4
ssg83
Nsg76
(lp5882
sbasbasbasbag69
(g85
g71
NtRp5883
(dp5884
g74
(dp5885
sg83
g5430
sg76
(lp5886
g69
(g90
g71
NtRp5887
(dp5888
g74
(dp5889
g94
g95
ssg83
g5883
sg76
(lp5890
S'models_to_run'
p5891
asbag69
(g90
g71
NtRp5892
(dp5893
g74
(dp5894
g101
g102
ssg83
g5883
sg76
(lp5895
S':'
asbag69
(g90
g71
NtRp5896
(dp5897
g74
(dp5898
sg83
g5883
sg76
(lp5899
g69
(g70
g71
NtRp5900
(dp5901
g74
(dp5902
g82
I5
ssg83
g5896
sg76
(lp5903
g69
(g78
g71
NtRp5904
(dp5905
g74
(dp5906
g82
I4
ssg83
Nsg76
(lp5907
g69
(g85
g71
NtRp5908
(dp5909
g74
(dp5910
sg83
g5904
sg76
(lp5911
g69
(g90
g71
NtRp5912
(dp5913
g74
(dp5914
sg83
g5908
sg76
(lp5915
g69
(g70
g71
NtRp5916
(dp5917
g74
(dp5918
g82
I4
ssg83
g5912
sg76
(lp5919
S'^\\w+\\.py$'
p5920
asbasbasbag69
(g85
g71
NtRp5921
(dp5922
g74
(dp5923
sg83
g5904
sg76
(lp5924
g69
(g90
g71
NtRp5925
(dp5926
g74
(dp5927
sg83
g5921
sg76
(lp5928
g69
(g70
g71
NtRp5929
(dp5930
g74
(dp5931
g82
I4
ssg83
g5925
sg76
(lp5932
S'^appadmin/\\w+\\.py$'
p5933
asbasbasbag69
(g85
g71
NtRp5934
(dp5935
g74
(dp5936
sg83
g5904
sg76
(lp5937
g69
(g90
g71
NtRp5938
(dp5939
g74
(dp5940
sg83
g5934
sg76
(lp5941
g69
(g70
g71
NtRp5942
(dp5943
g74
(dp5944
g82
I4
ssg83
g5938
sg76
(lp5945
S'^appadmin/select/\\w+\\.py$'
p5946
asbasbasbasbasbasbasbag69
(g85
g71
NtRp5947
(dp5948
g74
(dp5949
sg83
g5430
sg76
(lp5950
g69
(g90
g71
NtRp5951
(dp5952
g74
(dp5953
g94
g95
ssg83
g5947
sg76
(lp5954
S'postprocessing'
p5955
asbag69
(g90
g71
NtRp5956
(dp5957
g74
(dp5958
g101
g102
ssg83
g5947
sg76
(lp5959
S':'
asbag69
(g90
g71
NtRp5960
(dp5961
g74
(dp5962
sg83
g5947
sg76
(lp5963
g69
(g70
g71
NtRp5964
(dp5965
g74
(dp5966
g82
I5
ssg83
g5960
sg76
(lp5967
g69
(g78
g71
NtRp5968
(dp5969
g74
(dp5970
g82
I4
ssg83
Nsg76
(lp5971
sbasbasbasbag69
(g85
g71
NtRp5972
(dp5973
g74
(dp5974
sg83
g5430
sg76
(lp5975
g69
(g90
g71
NtRp5976
(dp5977
g74
(dp5978
g94
g95
ssg83
g5972
sg76
(lp5979
S'session_cookie_expires'
p5980
asbag69
(g90
g71
NtRp5981
(dp5982
g74
(dp5983
g101
g102
ssg83
g5972
sg76
(lp5984
S':'
asbag69
(g90
g71
NtRp5985
(dp5986
g74
(dp5987
sg83
g5972
sg76
(lp5988
g69
(g70
g71
NtRp5989
(dp5990
g74
(dp5991
g82
I5
ssg83
g5985
sg76
(lp5992
S'None'
p5993
asbasbasbag69
(g85
g71
NtRp5994
(dp5995
g74
(dp5996
sg83
g5430
sg76
(lp5997
g69
(g90
g71
NtRp5998
(dp5999
g74
(dp6000
g94
g95
ssg83
g5994
sg76
(lp6001
S'session_data_name'
p6002
asbag69
(g90
g71
NtRp6003
(dp6004
g74
(dp6005
g101
g102
ssg83
g5994
sg76
(lp6006
S':'
asbag69
(g90
g71
NtRp6007
(dp6008
g74
(dp6009
sg83
g5994
sg76
(lp6010
g69
(g70
g71
NtRp6011
(dp6012
g74
(dp6013
g82
I5
ssg83
g6007
sg76
(lp6014
S'session_data_pythoncheck'
p6015
asbasbasbag69
(g85
g71
NtRp6016
(dp6017
g74
(dp6018
sg83
g5430
sg76
(lp6019
g69
(g90
g71
NtRp6020
(dp6021
g74
(dp6022
g94
g95
ssg83
g6016
sg76
(lp6023
S'session_file'
p6024
asbag69
(g90
g71
NtRp6025
(dp6026
g74
(dp6027
g101
g102
ssg83
g6016
sg76
(lp6028
S':'
asbag69
(g90
g71
NtRp6029
(dp6030
g74
(dp6031
sg83
g6016
sg76
(lp6032
g69
(g70
g71
NtRp6033
(dp6034
g74
(dp6035
g82
I5
ssg83
g6029
sg76
(lp6036
S"<open file '/Applications/web2py/applications/PythonCheck/sessions/127.0.0.1-abcdf534-80cd-4b45-82bb-3b11e39875cc', mode 'rb+' at 0x1074aa270>"
p6037
asbasbasbag69
(g85
g71
NtRp6038
(dp6039
g74
(dp6040
sg83
g5430
sg76
(lp6041
g69
(g90
g71
NtRp6042
(dp6043
g74
(dp6044
g94
g95
ssg83
g6038
sg76
(lp6045
S'session_filename'
p6046
asbag69
(g90
g71
NtRp6047
(dp6048
g74
(dp6049
g101
g102
ssg83
g6038
sg76
(lp6050
S':'
asbag69
(g90
g71
NtRp6051
(dp6052
g74
(dp6053
sg83
g6038
sg76
(lp6054
g69
(g70
g71
NtRp6055
(dp6056
g74
(dp6057
g82
I5
ssg83
g6051
sg76
(lp6058
S'/Applications/web2py/applications/PythonCheck/sessions/127.0.0.1-abcdf534-80cd-4b45-82bb-3b11e39875cc'
p6059
asbasbasbag69
(g85
g71
NtRp6060
(dp6061
g74
(dp6062
sg83
g5430
sg76
(lp6063
g69
(g90
g71
NtRp6064
(dp6065
g74
(dp6066
g94
g95
ssg83
g6060
sg76
(lp6067
S'session_id'
p6068
asbag69
(g90
g71
NtRp6069
(dp6070
g74
(dp6071
g101
g102
ssg83
g6060
sg76
(lp6072
S':'
asbag69
(g90
g71
NtRp6073
(dp6074
g74
(dp6075
sg83
g6060
sg76
(lp6076
g69
(g70
g71
NtRp6077
(dp6078
g74
(dp6079
g82
I5
ssg83
g6073
sg76
(lp6080
g2171
asbasbasbag69
(g85
g71
NtRp6081
(dp6082
g74
(dp6083
sg83
g5430
sg76
(lp6084
g69
(g90
g71
NtRp6085
(dp6086
g74
(dp6087
g94
g95
ssg83
g6081
sg76
(lp6088
S'session_id_name'
p6089
asbag69
(g90
g71
NtRp6090
(dp6091
g74
(dp6092
g101
g102
ssg83
g6081
sg76
(lp6093
S':'
asbag69
(g90
g71
NtRp6094
(dp6095
g74
(dp6096
sg83
g6081
sg76
(lp6097
g69
(g70
g71
NtRp6098
(dp6099
g74
(dp6100
g82
I5
ssg83
g6094
sg76
(lp6101
g5487
asbasbasbag69
(g85
g71
NtRp6102
(dp6103
g74
(dp6104
sg83
g5430
sg76
(lp6105
g69
(g90
g71
NtRp6106
(dp6107
g74
(dp6108
g94
g95
ssg83
g6102
sg76
(lp6109
S'session_locked'
p6110
asbag69
(g90
g71
NtRp6111
(dp6112
g74
(dp6113
g101
g102
ssg83
g6102
sg76
(lp6114
S':'
asbag69
(g90
g71
NtRp6115
(dp6116
g74
(dp6117
sg83
g6102
sg76
(lp6118
g69
(g70
g71
NtRp6119
(dp6120
g74
(dp6121
g82
I5
ssg83
g6115
sg76
(lp6122
g3507
asbasbasbag69
(g85
g71
NtRp6123
(dp6124
g74
(dp6125
sg83
g5430
sg76
(lp6126
g69
(g90
g71
NtRp6127
(dp6128
g74
(dp6129
g94
g95
ssg83
g6123
sg76
(lp6130
S'session_new'
p6131
asbag69
(g90
g71
NtRp6132
(dp6133
g74
(dp6134
g101
g102
ssg83
g6123
sg76
(lp6135
S':'
asbag69
(g90
g71
NtRp6136
(dp6137
g74
(dp6138
sg83
g6123
sg76
(lp6139
g69
(g70
g71
NtRp6140
(dp6141
g74
(dp6142
g82
I5
ssg83
g6136
sg76
(lp6143
g112
asbasbasbag69
(g85
g71
NtRp6144
(dp6145
g74
(dp6146
sg83
g5430
sg76
(lp6147
g69
(g90
g71
NtRp6148
(dp6149
g74
(dp6150
g94
g95
ssg83
g6144
sg76
(lp6151
S'session_storage_type'
p6152
asbag69
(g90
g71
NtRp6153
(dp6154
g74
(dp6155
g101
g102
ssg83
g6144
sg76
(lp6156
S':'
asbag69
(g90
g71
NtRp6157
(dp6158
g74
(dp6159
sg83
g6144
sg76
(lp6160
g69
(g70
g71
NtRp6161
(dp6162
g74
(dp6163
g82
I5
ssg83
g6157
sg76
(lp6164
g4981
asbasbasbag69
(g85
g71
NtRp6165
(dp6166
g74
(dp6167
sg83
g5430
sg76
(lp6168
g69
(g90
g71
NtRp6169
(dp6170
g74
(dp6171
g94
g95
ssg83
g6165
sg76
(lp6172
S'status'
p6173
asbag69
(g90
g71
NtRp6174
(dp6175
g74
(dp6176
g101
g102
ssg83
g6165
sg76
(lp6177
S':'
asbag69
(g90
g71
NtRp6178
(dp6179
g74
(dp6180
sg83
g6165
sg76
(lp6181
g69
(g70
g71
NtRp6182
(dp6183
g74
(dp6184
g82
I5
ssg83
g6178
sg76
(lp6185
S'200'
p6186
asbasbasbag69
(g85
g71
NtRp6187
(dp6188
g74
(dp6189
sg83
g5430
sg76
(lp6190
g69
(g90
g71
NtRp6191
(dp6192
g74
(dp6193
g94
g95
ssg83
g6187
sg76
(lp6194
S'view'
p6195
asbag69
(g90
g71
NtRp6196
(dp6197
g74
(dp6198
g101
g102
ssg83
g6187
sg76
(lp6199
S':'
asbag69
(g90
g71
NtRp6200
(dp6201
g74
(dp6202
sg83
g6187
sg76
(lp6203
g69
(g70
g71
NtRp6204
(dp6205
g74
(dp6206
g82
I5
ssg83
g6200
sg76
(lp6207
S'appadmin/select.html'
p6208
asbasbasbasbasbsS'locals'
p6209
(dp6210
g4
S"'/Applications/web2py/applications/PythonCheck/models/db.py'"
p6211
sg6
S'"# -*- coding: utf-8 -*-\\n\\n#######################...                label=T(\'Teacher\', lazy=False)))\\n"'
p6212
sssS'traceback'
p6213
S'Traceback (most recent call last):\n  File "/Applications/web2py/gluon/restricted.py", line 211, in restricted\n    ccode = compile2(code, layer)\n  File "/Applications/web2py/gluon/restricted.py", line 194, in compile2\n    return compile(code.rstrip().replace(\'\\r\\n\', \'\\n\') + \'\\n\', layer, \'exec\')\n  File "/Applications/web2py/applications/PythonCheck/models/db.py", line 93\n    label=T(\'Name\', lazy=False)),\n        ^\nSyntaxError: invalid syntax\n'
p6214
s.